

Microchip Technology PIC LITE Macro Assembler V2.00 build -1524193055 
                                                                                               Fri Feb 22 17:06:07 2019

Microchip Technology Omniscient Code Generator v2.00 (Free mode) build 20180527130849
     1  0000                     
      + 0000                     
     2                           ; Version 2.00
     3                           ; Generated 27/05/2018 GMT
     4                           
     5                           ; 
     6                           ; Copyright © 2018, Microchip Technology Inc. and its subsidiaries ("Microchip")
     7                           ; All rights reserved.
     8                           ; 
     9                           ; This software is developed by Microchip Technology Inc. and its subsidiaries ("Microch
                                 ip").
    10                           ; 
    11                           ; Redistribution and use in source and binary forms, with or without modification, are
    12                           ; permitted provided that the following conditions are met:
    13                           ; 
    14                           ;     1. Redistributions of source code must retain the above copyright notice, this lis
                                 t of
    15                           ;        conditions and the following disclaimer.
    16                           ; 
    17                           ;     2. Redistributions in binary form must reproduce the above copyright notice, this 
                                 list
    18                           ;        of conditions and the following disclaimer in the documentation and/or other
    19                           ;        materials provided with the distribution.
    20                           ; 
    21                           ;     3. Microchip's name may not be used to endorse or promote products derived from th
                                 is
    22                           ;        software without specific prior written permission.
    23                           ; 
    24                           ; THIS SOFTWARE IS PROVIDED BY MICROCHIP "AS IS" AND ANY EXPRESS OR IMPLIED WARRANTIES,

    25                           ; INCLUDING, BUT NOT LIMITED TO, THE IMPLIED WARRANTIES OF MERCHANTABILITY AND FITNESS F
                                 OR
    26                           ; PURPOSE ARE DISCLAIMED.  IN NO EVENT SHALL MICROCHIP BE LIABLE FOR ANY DIRECT, INDIREC
                                 T,
    27                           ; INCIDENTAL, SPECIAL, EXEMPLARY, OR CONSEQUENTIAL DAMAGES (INCLUDING BUT NOT LIMITED TO
                                 
    28                           ; PROCUREMENT OF SUBSTITUTE GOODS OR SERVICES; LOSS OF USE, DATA OR PROFITS; OR BUSINESS
                                 
    29                           ; INTERRUPTION) HOWSOEVER CAUSED AND ON ANY THEORY OF LIABILITY, WHETHER IN CONTRACT, ST
                                 RICT
    30                           ; LIABILITY, OR TORT (INCLUDING NEGLIGENCE OR OTHERWISE) ARISING IN ANY WAY OUT OF THE U
                                 SE OF
    31                           ; THIS SOFTWARE, EVEN IF ADVISED OF THE POSSIBILITY OF SUCH DAMAGE.
    32                           ; 
    33                           
    34                           
    35                           ; 
    36                           ; Code-generator required, PIC16F877 Definitions
    37                           ; 
    38  0004                     fsr0 equ 04h
    39  0004                     indf equ 00h
    40  0000                     indf0 equ 00h
    41  0000                     pc equ 02h
    42  0002                     pcl equ 02h
    43  0002                     pclath equ 0Ah
    44  000A                     status equ 03h
    45  0003                     
     2                           opt pagewidth 120
     3  0000                     byte0	macro	val
     4                           	(getbyte(val,0))
     5                           endm
     6  0000                     byte1	macro	val
     7                           	(getbyte(val,1))
     8                           endm
     9  0000                     byte2	macro	val
    10                           	(getbyte(val,2))
    11                           endm
    12  0000                     byte3	macro	val
    13                           	(getbyte(val,3))
    14                           endm
    15  0000                     byte4	macro	val
    16                           	(getbyte(val,4))
    17                           endm
    18  0000                     byte5	macro	val
    19                           	(getbyte(val,5))
    20                           endm
    21  0000                     byte6	macro	val
    22                           	(getbyte(val,6))
    23                           endm
    24  0000                     byte7	macro	val
    25                           	(getbyte(val,7))
    26                           endm
    27  0000                     getword	macro	val,pos
    28                           	(((val) >> (8 * pos)) and 0xffff)
    29                           endm
    30  0000                     word0	macro	val
    31                           	(getword(val,0))
    32                           endm
    33  0000                     word1	macro	val
    34                           	(getword(val,2))
    35                           endm
    36  0000                     word2	macro	val
    37                           	(getword(val,4))
    38                           endm
    39  0000                     word3	macro	val
    40                           	(getword(val,6))
    41                           endm
    42  0000                     gettword	macro	val,pos
    43                           	(((val) >> (8 * pos)) and 0xffffff)
    44                           endm
    45  0000                     tword0	macro	val
    46                           	(gettword(val,0))
    47                           endm
    48  0000                     tword1	macro	val
    49                           	(gettword(val,3))
    50                           endm
    51  0000                     tword2	macro	val
    52                           	(gettword(val,6))
    53                           endm
    54  0000                     getdword	macro	val,pos
    55                           	(((val) >> (8 * pos)) and 0xffffffff)
    56                           endm
    57  0000                     dword0	macro	val
    58                           	(getdword(val,0))
    59                           endm
    60  0000                     dword1	macro	val
    61                           	(getdword(val,4))
    62                           endm
    63  0000                     clrc	macro
    64                           	bcf	3,0
    65                           	endm
    66  0000                     clrz	macro
    67                           	bcf	3,2
    68                           	endm
    69  0000                     setc	macro
    70                           	bsf	3,0
    71                           	endm
    72  0000                     setz	macro
    73                           	bsf	3,2
    74                           	endm
    75  0000                     skipc	macro
    76                           	btfss	3,0
    77                           	endm
    78  0000                     skipz	macro
    79                           	btfss	3,2
    80                           	endm
    81  0000                     skipnc	macro
    82                           	btfsc	3,0
    83                           	endm
    84  0000                     skipnz	macro
    85                           	btfsc	3,2
    86                           	endm
    87  0000                     # 54 "C:\Program Files (x86)\Microchip\xc8\v2.00\pic\include\pic16f877.h"
    88                           INDF equ 00h ;# 
    89  0000                     # 61 "C:\Program Files (x86)\Microchip\xc8\v2.00\pic\include\pic16f877.h"
    90                           TMR0 equ 01h ;# 
    91  0001                     # 68 "C:\Program Files (x86)\Microchip\xc8\v2.00\pic\include\pic16f877.h"
    92                           PCL equ 02h ;# 
    93  0002                     # 75 "C:\Program Files (x86)\Microchip\xc8\v2.00\pic\include\pic16f877.h"
    94                           STATUS equ 03h ;# 
    95  0003                     # 161 "C:\Program Files (x86)\Microchip\xc8\v2.00\pic\include\pic16f877.h"
    96                           FSR equ 04h ;# 
    97  0004                     # 168 "C:\Program Files (x86)\Microchip\xc8\v2.00\pic\include\pic16f877.h"
    98                           PORTA equ 05h ;# 
    99  0005                     # 218 "C:\Program Files (x86)\Microchip\xc8\v2.00\pic\include\pic16f877.h"
   100                           PORTB equ 06h ;# 
   101  0006                     # 280 "C:\Program Files (x86)\Microchip\xc8\v2.00\pic\include\pic16f877.h"
   102                           PORTC equ 07h ;# 
   103  0007                     # 342 "C:\Program Files (x86)\Microchip\xc8\v2.00\pic\include\pic16f877.h"
   104                           PORTD equ 08h ;# 
   105  0008                     # 404 "C:\Program Files (x86)\Microchip\xc8\v2.00\pic\include\pic16f877.h"
   106                           PORTE equ 09h ;# 
   107  0009                     # 436 "C:\Program Files (x86)\Microchip\xc8\v2.00\pic\include\pic16f877.h"
   108                           PCLATH equ 0Ah ;# 
   109  000A                     # 456 "C:\Program Files (x86)\Microchip\xc8\v2.00\pic\include\pic16f877.h"
   110                           INTCON equ 0Bh ;# 
   111  000B                     # 534 "C:\Program Files (x86)\Microchip\xc8\v2.00\pic\include\pic16f877.h"
   112                           PIR1 equ 0Ch ;# 
   113  000C                     # 596 "C:\Program Files (x86)\Microchip\xc8\v2.00\pic\include\pic16f877.h"
   114                           PIR2 equ 0Dh ;# 
   115  000D                     # 629 "C:\Program Files (x86)\Microchip\xc8\v2.00\pic\include\pic16f877.h"
   116                           TMR1 equ 0Eh ;# 
   117  000E                     # 636 "C:\Program Files (x86)\Microchip\xc8\v2.00\pic\include\pic16f877.h"
   118                           TMR1L equ 0Eh ;# 
   119  000E                     # 643 "C:\Program Files (x86)\Microchip\xc8\v2.00\pic\include\pic16f877.h"
   120                           TMR1H equ 0Fh ;# 
   121  000F                     # 650 "C:\Program Files (x86)\Microchip\xc8\v2.00\pic\include\pic16f877.h"
   122                           T1CON equ 010h ;# 
   123  0010                     # 727 "C:\Program Files (x86)\Microchip\xc8\v2.00\pic\include\pic16f877.h"
   124                           TMR2 equ 011h ;# 
   125  0011                     # 734 "C:\Program Files (x86)\Microchip\xc8\v2.00\pic\include\pic16f877.h"
   126                           T2CON equ 012h ;# 
   127  0012                     # 805 "C:\Program Files (x86)\Microchip\xc8\v2.00\pic\include\pic16f877.h"
   128                           SSPBUF equ 013h ;# 
   129  0013                     # 812 "C:\Program Files (x86)\Microchip\xc8\v2.00\pic\include\pic16f877.h"
   130                           SSPCON equ 014h ;# 
   131  0014                     # 882 "C:\Program Files (x86)\Microchip\xc8\v2.00\pic\include\pic16f877.h"
   132                           CCPR1 equ 015h ;# 
   133  0015                     # 889 "C:\Program Files (x86)\Microchip\xc8\v2.00\pic\include\pic16f877.h"
   134                           CCPR1L equ 015h ;# 
   135  0015                     # 896 "C:\Program Files (x86)\Microchip\xc8\v2.00\pic\include\pic16f877.h"
   136                           CCPR1H equ 016h ;# 
   137  0016                     # 903 "C:\Program Files (x86)\Microchip\xc8\v2.00\pic\include\pic16f877.h"
   138                           CCP1CON equ 017h ;# 
   139  0017                     # 961 "C:\Program Files (x86)\Microchip\xc8\v2.00\pic\include\pic16f877.h"
   140                           RCSTA equ 018h ;# 
   141  0018                     # 1056 "C:\Program Files (x86)\Microchip\xc8\v2.00\pic\include\pic16f877.h"
   142                           TXREG equ 019h ;# 
   143  0019                     # 1063 "C:\Program Files (x86)\Microchip\xc8\v2.00\pic\include\pic16f877.h"
   144                           RCREG equ 01Ah ;# 
   145  001A                     # 1070 "C:\Program Files (x86)\Microchip\xc8\v2.00\pic\include\pic16f877.h"
   146                           CCPR2 equ 01Bh ;# 
   147  001B                     # 1077 "C:\Program Files (x86)\Microchip\xc8\v2.00\pic\include\pic16f877.h"
   148                           CCPR2L equ 01Bh ;# 
   149  001B                     # 1084 "C:\Program Files (x86)\Microchip\xc8\v2.00\pic\include\pic16f877.h"
   150                           CCPR2H equ 01Ch ;# 
   151  001C                     # 1091 "C:\Program Files (x86)\Microchip\xc8\v2.00\pic\include\pic16f877.h"
   152                           CCP2CON equ 01Dh ;# 
   153  001D                     # 1149 "C:\Program Files (x86)\Microchip\xc8\v2.00\pic\include\pic16f877.h"
   154                           ADRESH equ 01Eh ;# 
   155  001E                     # 1156 "C:\Program Files (x86)\Microchip\xc8\v2.00\pic\include\pic16f877.h"
   156                           ADCON0 equ 01Fh ;# 
   157  001F                     # 1252 "C:\Program Files (x86)\Microchip\xc8\v2.00\pic\include\pic16f877.h"
   158                           OPTION_REG equ 081h ;# 
   159  0081                     # 1322 "C:\Program Files (x86)\Microchip\xc8\v2.00\pic\include\pic16f877.h"
   160                           TRISA equ 085h ;# 
   161  0085                     # 1372 "C:\Program Files (x86)\Microchip\xc8\v2.00\pic\include\pic16f877.h"
   162                           TRISB equ 086h ;# 
   163  0086                     # 1434 "C:\Program Files (x86)\Microchip\xc8\v2.00\pic\include\pic16f877.h"
   164                           TRISC equ 087h ;# 
   165  0087                     # 1496 "C:\Program Files (x86)\Microchip\xc8\v2.00\pic\include\pic16f877.h"
   166                           TRISD equ 088h ;# 
   167  0088                     # 1558 "C:\Program Files (x86)\Microchip\xc8\v2.00\pic\include\pic16f877.h"
   168                           TRISE equ 089h ;# 
   169  0089                     # 1615 "C:\Program Files (x86)\Microchip\xc8\v2.00\pic\include\pic16f877.h"
   170                           PIE1 equ 08Ch ;# 
   171  008C                     # 1677 "C:\Program Files (x86)\Microchip\xc8\v2.00\pic\include\pic16f877.h"
   172                           PIE2 equ 08Dh ;# 
   173  008D                     # 1710 "C:\Program Files (x86)\Microchip\xc8\v2.00\pic\include\pic16f877.h"
   174                           PCON equ 08Eh ;# 
   175  008E                     # 1744 "C:\Program Files (x86)\Microchip\xc8\v2.00\pic\include\pic16f877.h"
   176                           SSPCON2 equ 091h ;# 
   177  0091                     # 1806 "C:\Program Files (x86)\Microchip\xc8\v2.00\pic\include\pic16f877.h"
   178                           PR2 equ 092h ;# 
   179  0092                     # 1813 "C:\Program Files (x86)\Microchip\xc8\v2.00\pic\include\pic16f877.h"
   180                           SSPADD equ 093h ;# 
   181  0093                     # 1820 "C:\Program Files (x86)\Microchip\xc8\v2.00\pic\include\pic16f877.h"
   182                           SSPSTAT equ 094h ;# 
   183  0094                     # 1989 "C:\Program Files (x86)\Microchip\xc8\v2.00\pic\include\pic16f877.h"
   184                           TXSTA equ 098h ;# 
   185  0098                     # 2070 "C:\Program Files (x86)\Microchip\xc8\v2.00\pic\include\pic16f877.h"
   186                           SPBRG equ 099h ;# 
   187  0099                     # 2077 "C:\Program Files (x86)\Microchip\xc8\v2.00\pic\include\pic16f877.h"
   188                           ADRESL equ 09Eh ;# 
   189  009E                     # 2084 "C:\Program Files (x86)\Microchip\xc8\v2.00\pic\include\pic16f877.h"
   190                           ADCON1 equ 09Fh ;# 
   191  009F                     # 2137 "C:\Program Files (x86)\Microchip\xc8\v2.00\pic\include\pic16f877.h"
   192                           EEDATA equ 010Ch ;# 
   193  010C                     # 2144 "C:\Program Files (x86)\Microchip\xc8\v2.00\pic\include\pic16f877.h"
   194                           EEADR equ 010Dh ;# 
   195  010D                     # 2151 "C:\Program Files (x86)\Microchip\xc8\v2.00\pic\include\pic16f877.h"
   196                           EEDATH equ 010Eh ;# 
   197  010E                     # 2158 "C:\Program Files (x86)\Microchip\xc8\v2.00\pic\include\pic16f877.h"
   198                           EEADRH equ 010Fh ;# 
   199  010F                     # 2165 "C:\Program Files (x86)\Microchip\xc8\v2.00\pic\include\pic16f877.h"
   200                           EECON1 equ 018Ch ;# 
   201  018C                     # 2210 "C:\Program Files (x86)\Microchip\xc8\v2.00\pic\include\pic16f877.h"
   202                           EECON2 equ 018Dh ;# 
   203  018D                     # 54 "C:\Program Files (x86)\Microchip\xc8\v2.00\pic\include\pic16f877.h"
   204                           INDF equ 00h ;# 
   205  0000                     # 61 "C:\Program Files (x86)\Microchip\xc8\v2.00\pic\include\pic16f877.h"
   206                           TMR0 equ 01h ;# 
   207  0001                     # 68 "C:\Program Files (x86)\Microchip\xc8\v2.00\pic\include\pic16f877.h"
   208                           PCL equ 02h ;# 
   209  0002                     # 75 "C:\Program Files (x86)\Microchip\xc8\v2.00\pic\include\pic16f877.h"
   210                           STATUS equ 03h ;# 
   211  0003                     # 161 "C:\Program Files (x86)\Microchip\xc8\v2.00\pic\include\pic16f877.h"
   212                           FSR equ 04h ;# 
   213  0004                     # 168 "C:\Program Files (x86)\Microchip\xc8\v2.00\pic\include\pic16f877.h"
   214                           PORTA equ 05h ;# 
   215  0005                     # 218 "C:\Program Files (x86)\Microchip\xc8\v2.00\pic\include\pic16f877.h"
   216                           PORTB equ 06h ;# 
   217  0006                     # 280 "C:\Program Files (x86)\Microchip\xc8\v2.00\pic\include\pic16f877.h"
   218                           PORTC equ 07h ;# 
   219  0007                     # 342 "C:\Program Files (x86)\Microchip\xc8\v2.00\pic\include\pic16f877.h"
   220                           PORTD equ 08h ;# 
   221  0008                     # 404 "C:\Program Files (x86)\Microchip\xc8\v2.00\pic\include\pic16f877.h"
   222                           PORTE equ 09h ;# 
   223  0009                     # 436 "C:\Program Files (x86)\Microchip\xc8\v2.00\pic\include\pic16f877.h"
   224                           PCLATH equ 0Ah ;# 
   225  000A                     # 456 "C:\Program Files (x86)\Microchip\xc8\v2.00\pic\include\pic16f877.h"
   226                           INTCON equ 0Bh ;# 
   227  000B                     # 534 "C:\Program Files (x86)\Microchip\xc8\v2.00\pic\include\pic16f877.h"
   228                           PIR1 equ 0Ch ;# 
   229  000C                     # 596 "C:\Program Files (x86)\Microchip\xc8\v2.00\pic\include\pic16f877.h"
   230                           PIR2 equ 0Dh ;# 
   231  000D                     # 629 "C:\Program Files (x86)\Microchip\xc8\v2.00\pic\include\pic16f877.h"
   232                           TMR1 equ 0Eh ;# 
   233  000E                     # 636 "C:\Program Files (x86)\Microchip\xc8\v2.00\pic\include\pic16f877.h"
   234                           TMR1L equ 0Eh ;# 
   235  000E                     # 643 "C:\Program Files (x86)\Microchip\xc8\v2.00\pic\include\pic16f877.h"
   236                           TMR1H equ 0Fh ;# 
   237  000F                     # 650 "C:\Program Files (x86)\Microchip\xc8\v2.00\pic\include\pic16f877.h"
   238                           T1CON equ 010h ;# 
   239  0010                     # 727 "C:\Program Files (x86)\Microchip\xc8\v2.00\pic\include\pic16f877.h"
   240                           TMR2 equ 011h ;# 
   241  0011                     # 734 "C:\Program Files (x86)\Microchip\xc8\v2.00\pic\include\pic16f877.h"
   242                           T2CON equ 012h ;# 
   243  0012                     # 805 "C:\Program Files (x86)\Microchip\xc8\v2.00\pic\include\pic16f877.h"
   244                           SSPBUF equ 013h ;# 
   245  0013                     # 812 "C:\Program Files (x86)\Microchip\xc8\v2.00\pic\include\pic16f877.h"
   246                           SSPCON equ 014h ;# 
   247  0014                     # 882 "C:\Program Files (x86)\Microchip\xc8\v2.00\pic\include\pic16f877.h"
   248                           CCPR1 equ 015h ;# 
   249  0015                     # 889 "C:\Program Files (x86)\Microchip\xc8\v2.00\pic\include\pic16f877.h"
   250                           CCPR1L equ 015h ;# 
   251  0015                     # 896 "C:\Program Files (x86)\Microchip\xc8\v2.00\pic\include\pic16f877.h"
   252                           CCPR1H equ 016h ;# 
   253  0016                     # 903 "C:\Program Files (x86)\Microchip\xc8\v2.00\pic\include\pic16f877.h"
   254                           CCP1CON equ 017h ;# 
   255  0017                     # 961 "C:\Program Files (x86)\Microchip\xc8\v2.00\pic\include\pic16f877.h"
   256                           RCSTA equ 018h ;# 
   257  0018                     # 1056 "C:\Program Files (x86)\Microchip\xc8\v2.00\pic\include\pic16f877.h"
   258                           TXREG equ 019h ;# 
   259  0019                     # 1063 "C:\Program Files (x86)\Microchip\xc8\v2.00\pic\include\pic16f877.h"
   260                           RCREG equ 01Ah ;# 
   261  001A                     # 1070 "C:\Program Files (x86)\Microchip\xc8\v2.00\pic\include\pic16f877.h"
   262                           CCPR2 equ 01Bh ;# 
   263  001B                     # 1077 "C:\Program Files (x86)\Microchip\xc8\v2.00\pic\include\pic16f877.h"
   264                           CCPR2L equ 01Bh ;# 
   265  001B                     # 1084 "C:\Program Files (x86)\Microchip\xc8\v2.00\pic\include\pic16f877.h"
   266                           CCPR2H equ 01Ch ;# 
   267  001C                     # 1091 "C:\Program Files (x86)\Microchip\xc8\v2.00\pic\include\pic16f877.h"
   268                           CCP2CON equ 01Dh ;# 
   269  001D                     # 1149 "C:\Program Files (x86)\Microchip\xc8\v2.00\pic\include\pic16f877.h"
   270                           ADRESH equ 01Eh ;# 
   271  001E                     # 1156 "C:\Program Files (x86)\Microchip\xc8\v2.00\pic\include\pic16f877.h"
   272                           ADCON0 equ 01Fh ;# 
   273  001F                     # 1252 "C:\Program Files (x86)\Microchip\xc8\v2.00\pic\include\pic16f877.h"
   274                           OPTION_REG equ 081h ;# 
   275  0081                     # 1322 "C:\Program Files (x86)\Microchip\xc8\v2.00\pic\include\pic16f877.h"
   276                           TRISA equ 085h ;# 
   277  0085                     # 1372 "C:\Program Files (x86)\Microchip\xc8\v2.00\pic\include\pic16f877.h"
   278                           TRISB equ 086h ;# 
   279  0086                     # 1434 "C:\Program Files (x86)\Microchip\xc8\v2.00\pic\include\pic16f877.h"
   280                           TRISC equ 087h ;# 
   281  0087                     # 1496 "C:\Program Files (x86)\Microchip\xc8\v2.00\pic\include\pic16f877.h"
   282                           TRISD equ 088h ;# 
   283  0088                     # 1558 "C:\Program Files (x86)\Microchip\xc8\v2.00\pic\include\pic16f877.h"
   284                           TRISE equ 089h ;# 
   285  0089                     # 1615 "C:\Program Files (x86)\Microchip\xc8\v2.00\pic\include\pic16f877.h"
   286                           PIE1 equ 08Ch ;# 
   287  008C                     # 1677 "C:\Program Files (x86)\Microchip\xc8\v2.00\pic\include\pic16f877.h"
   288                           PIE2 equ 08Dh ;# 
   289  008D                     # 1710 "C:\Program Files (x86)\Microchip\xc8\v2.00\pic\include\pic16f877.h"
   290                           PCON equ 08Eh ;# 
   291  008E                     # 1744 "C:\Program Files (x86)\Microchip\xc8\v2.00\pic\include\pic16f877.h"
   292                           SSPCON2 equ 091h ;# 
   293  0091                     # 1806 "C:\Program Files (x86)\Microchip\xc8\v2.00\pic\include\pic16f877.h"
   294                           PR2 equ 092h ;# 
   295  0092                     # 1813 "C:\Program Files (x86)\Microchip\xc8\v2.00\pic\include\pic16f877.h"
   296                           SSPADD equ 093h ;# 
   297  0093                     # 1820 "C:\Program Files (x86)\Microchip\xc8\v2.00\pic\include\pic16f877.h"
   298                           SSPSTAT equ 094h ;# 
   299  0094                     # 1989 "C:\Program Files (x86)\Microchip\xc8\v2.00\pic\include\pic16f877.h"
   300                           TXSTA equ 098h ;# 
   301  0098                     # 2070 "C:\Program Files (x86)\Microchip\xc8\v2.00\pic\include\pic16f877.h"
   302                           SPBRG equ 099h ;# 
   303  0099                     # 2077 "C:\Program Files (x86)\Microchip\xc8\v2.00\pic\include\pic16f877.h"
   304                           ADRESL equ 09Eh ;# 
   305  009E                     # 2084 "C:\Program Files (x86)\Microchip\xc8\v2.00\pic\include\pic16f877.h"
   306                           ADCON1 equ 09Fh ;# 
   307  009F                     # 2137 "C:\Program Files (x86)\Microchip\xc8\v2.00\pic\include\pic16f877.h"
   308                           EEDATA equ 010Ch ;# 
   309  010C                     # 2144 "C:\Program Files (x86)\Microchip\xc8\v2.00\pic\include\pic16f877.h"
   310                           EEADR equ 010Dh ;# 
   311  010D                     # 2151 "C:\Program Files (x86)\Microchip\xc8\v2.00\pic\include\pic16f877.h"
   312                           EEDATH equ 010Eh ;# 
   313  010E                     # 2158 "C:\Program Files (x86)\Microchip\xc8\v2.00\pic\include\pic16f877.h"
   314                           EEADRH equ 010Fh ;# 
   315  010F                     # 2165 "C:\Program Files (x86)\Microchip\xc8\v2.00\pic\include\pic16f877.h"
   316                           EECON1 equ 018Ch ;# 
   317  018C                     # 2210 "C:\Program Files (x86)\Microchip\xc8\v2.00\pic\include\pic16f877.h"
   318                           EECON2 equ 018Dh ;# 
   319  018D                     # 54 "C:\Program Files (x86)\Microchip\xc8\v2.00\pic\include\pic16f877.h"
   320                           INDF equ 00h ;# 
   321  0000                     # 61 "C:\Program Files (x86)\Microchip\xc8\v2.00\pic\include\pic16f877.h"
   322                           TMR0 equ 01h ;# 
   323  0001                     # 68 "C:\Program Files (x86)\Microchip\xc8\v2.00\pic\include\pic16f877.h"
   324                           PCL equ 02h ;# 
   325  0002                     # 75 "C:\Program Files (x86)\Microchip\xc8\v2.00\pic\include\pic16f877.h"
   326                           STATUS equ 03h ;# 
   327  0003                     # 161 "C:\Program Files (x86)\Microchip\xc8\v2.00\pic\include\pic16f877.h"
   328                           FSR equ 04h ;# 
   329  0004                     # 168 "C:\Program Files (x86)\Microchip\xc8\v2.00\pic\include\pic16f877.h"
   330                           PORTA equ 05h ;# 
   331  0005                     # 218 "C:\Program Files (x86)\Microchip\xc8\v2.00\pic\include\pic16f877.h"
   332                           PORTB equ 06h ;# 
   333  0006                     # 280 "C:\Program Files (x86)\Microchip\xc8\v2.00\pic\include\pic16f877.h"
   334                           PORTC equ 07h ;# 
   335  0007                     # 342 "C:\Program Files (x86)\Microchip\xc8\v2.00\pic\include\pic16f877.h"
   336                           PORTD equ 08h ;# 
   337  0008                     # 404 "C:\Program Files (x86)\Microchip\xc8\v2.00\pic\include\pic16f877.h"
   338                           PORTE equ 09h ;# 
   339  0009                     # 436 "C:\Program Files (x86)\Microchip\xc8\v2.00\pic\include\pic16f877.h"
   340                           PCLATH equ 0Ah ;# 
   341  000A                     # 456 "C:\Program Files (x86)\Microchip\xc8\v2.00\pic\include\pic16f877.h"
   342                           INTCON equ 0Bh ;# 
   343  000B                     # 534 "C:\Program Files (x86)\Microchip\xc8\v2.00\pic\include\pic16f877.h"
   344                           PIR1 equ 0Ch ;# 
   345  000C                     # 596 "C:\Program Files (x86)\Microchip\xc8\v2.00\pic\include\pic16f877.h"
   346                           PIR2 equ 0Dh ;# 
   347  000D                     # 629 "C:\Program Files (x86)\Microchip\xc8\v2.00\pic\include\pic16f877.h"
   348                           TMR1 equ 0Eh ;# 
   349  000E                     # 636 "C:\Program Files (x86)\Microchip\xc8\v2.00\pic\include\pic16f877.h"
   350                           TMR1L equ 0Eh ;# 
   351  000E                     # 643 "C:\Program Files (x86)\Microchip\xc8\v2.00\pic\include\pic16f877.h"
   352                           TMR1H equ 0Fh ;# 
   353  000F                     # 650 "C:\Program Files (x86)\Microchip\xc8\v2.00\pic\include\pic16f877.h"
   354                           T1CON equ 010h ;# 
   355  0010                     # 727 "C:\Program Files (x86)\Microchip\xc8\v2.00\pic\include\pic16f877.h"
   356                           TMR2 equ 011h ;# 
   357  0011                     # 734 "C:\Program Files (x86)\Microchip\xc8\v2.00\pic\include\pic16f877.h"
   358                           T2CON equ 012h ;# 
   359  0012                     # 805 "C:\Program Files (x86)\Microchip\xc8\v2.00\pic\include\pic16f877.h"
   360                           SSPBUF equ 013h ;# 
   361  0013                     # 812 "C:\Program Files (x86)\Microchip\xc8\v2.00\pic\include\pic16f877.h"
   362                           SSPCON equ 014h ;# 
   363  0014                     # 882 "C:\Program Files (x86)\Microchip\xc8\v2.00\pic\include\pic16f877.h"
   364                           CCPR1 equ 015h ;# 
   365  0015                     # 889 "C:\Program Files (x86)\Microchip\xc8\v2.00\pic\include\pic16f877.h"
   366                           CCPR1L equ 015h ;# 
   367  0015                     # 896 "C:\Program Files (x86)\Microchip\xc8\v2.00\pic\include\pic16f877.h"
   368                           CCPR1H equ 016h ;# 
   369  0016                     # 903 "C:\Program Files (x86)\Microchip\xc8\v2.00\pic\include\pic16f877.h"
   370                           CCP1CON equ 017h ;# 
   371  0017                     # 961 "C:\Program Files (x86)\Microchip\xc8\v2.00\pic\include\pic16f877.h"
   372                           RCSTA equ 018h ;# 
   373  0018                     # 1056 "C:\Program Files (x86)\Microchip\xc8\v2.00\pic\include\pic16f877.h"
   374                           TXREG equ 019h ;# 
   375  0019                     # 1063 "C:\Program Files (x86)\Microchip\xc8\v2.00\pic\include\pic16f877.h"
   376                           RCREG equ 01Ah ;# 
   377  001A                     # 1070 "C:\Program Files (x86)\Microchip\xc8\v2.00\pic\include\pic16f877.h"
   378                           CCPR2 equ 01Bh ;# 
   379  001B                     # 1077 "C:\Program Files (x86)\Microchip\xc8\v2.00\pic\include\pic16f877.h"
   380                           CCPR2L equ 01Bh ;# 
   381  001B                     # 1084 "C:\Program Files (x86)\Microchip\xc8\v2.00\pic\include\pic16f877.h"
   382                           CCPR2H equ 01Ch ;# 
   383  001C                     # 1091 "C:\Program Files (x86)\Microchip\xc8\v2.00\pic\include\pic16f877.h"
   384                           CCP2CON equ 01Dh ;# 
   385  001D                     # 1149 "C:\Program Files (x86)\Microchip\xc8\v2.00\pic\include\pic16f877.h"
   386                           ADRESH equ 01Eh ;# 
   387  001E                     # 1156 "C:\Program Files (x86)\Microchip\xc8\v2.00\pic\include\pic16f877.h"
   388                           ADCON0 equ 01Fh ;# 
   389  001F                     # 1252 "C:\Program Files (x86)\Microchip\xc8\v2.00\pic\include\pic16f877.h"
   390                           OPTION_REG equ 081h ;# 
   391  0081                     # 1322 "C:\Program Files (x86)\Microchip\xc8\v2.00\pic\include\pic16f877.h"
   392                           TRISA equ 085h ;# 
   393  0085                     # 1372 "C:\Program Files (x86)\Microchip\xc8\v2.00\pic\include\pic16f877.h"
   394                           TRISB equ 086h ;# 
   395  0086                     # 1434 "C:\Program Files (x86)\Microchip\xc8\v2.00\pic\include\pic16f877.h"
   396                           TRISC equ 087h ;# 
   397  0087                     # 1496 "C:\Program Files (x86)\Microchip\xc8\v2.00\pic\include\pic16f877.h"
   398                           TRISD equ 088h ;# 
   399  0088                     # 1558 "C:\Program Files (x86)\Microchip\xc8\v2.00\pic\include\pic16f877.h"
   400                           TRISE equ 089h ;# 
   401  0089                     # 1615 "C:\Program Files (x86)\Microchip\xc8\v2.00\pic\include\pic16f877.h"
   402                           PIE1 equ 08Ch ;# 
   403  008C                     # 1677 "C:\Program Files (x86)\Microchip\xc8\v2.00\pic\include\pic16f877.h"
   404                           PIE2 equ 08Dh ;# 
   405  008D                     # 1710 "C:\Program Files (x86)\Microchip\xc8\v2.00\pic\include\pic16f877.h"
   406                           PCON equ 08Eh ;# 
   407  008E                     # 1744 "C:\Program Files (x86)\Microchip\xc8\v2.00\pic\include\pic16f877.h"
   408                           SSPCON2 equ 091h ;# 
   409  0091                     # 1806 "C:\Program Files (x86)\Microchip\xc8\v2.00\pic\include\pic16f877.h"
   410                           PR2 equ 092h ;# 
   411  0092                     # 1813 "C:\Program Files (x86)\Microchip\xc8\v2.00\pic\include\pic16f877.h"
   412                           SSPADD equ 093h ;# 
   413  0093                     # 1820 "C:\Program Files (x86)\Microchip\xc8\v2.00\pic\include\pic16f877.h"
   414                           SSPSTAT equ 094h ;# 
   415  0094                     # 1989 "C:\Program Files (x86)\Microchip\xc8\v2.00\pic\include\pic16f877.h"
   416                           TXSTA equ 098h ;# 
   417  0098                     # 2070 "C:\Program Files (x86)\Microchip\xc8\v2.00\pic\include\pic16f877.h"
   418                           SPBRG equ 099h ;# 
   419  0099                     # 2077 "C:\Program Files (x86)\Microchip\xc8\v2.00\pic\include\pic16f877.h"
   420                           ADRESL equ 09Eh ;# 
   421  009E                     # 2084 "C:\Program Files (x86)\Microchip\xc8\v2.00\pic\include\pic16f877.h"
   422                           ADCON1 equ 09Fh ;# 
   423  009F                     # 2137 "C:\Program Files (x86)\Microchip\xc8\v2.00\pic\include\pic16f877.h"
   424                           EEDATA equ 010Ch ;# 
   425  010C                     # 2144 "C:\Program Files (x86)\Microchip\xc8\v2.00\pic\include\pic16f877.h"
   426                           EEADR equ 010Dh ;# 
   427  010D                     # 2151 "C:\Program Files (x86)\Microchip\xc8\v2.00\pic\include\pic16f877.h"
   428                           EEDATH equ 010Eh ;# 
   429  010E                     # 2158 "C:\Program Files (x86)\Microchip\xc8\v2.00\pic\include\pic16f877.h"
   430                           EEADRH equ 010Fh ;# 
   431  010F                     # 2165 "C:\Program Files (x86)\Microchip\xc8\v2.00\pic\include\pic16f877.h"
   432                           EECON1 equ 018Ch ;# 
   433  018C                     # 2210 "C:\Program Files (x86)\Microchip\xc8\v2.00\pic\include\pic16f877.h"
   434                           EECON2 equ 018Dh ;# 
   435  018D                     	FNCALL	_main,_watch_heat
   436                           	FNCALL	_watch_heat,___fladd
   437                           	FNCALL	_watch_heat,___fldiv
   438                           	FNCALL	_watch_heat,___flmul
   439                           	FNCALL	_watch_heat,___xxtofl
   440                           	FNCALL	_watch_heat,_change_heat
   441                           	FNCALL	_watch_heat,_check_heat
   442                           	FNCALL	_watch_heat,_light
   443                           	FNCALL	_light,___fleq
   444                           	FNCALL	_check_heat,___fladd
   445                           	FNCALL	_check_heat,___flge
   446                           	FNCALL	_change_heat,___fladd
   447                           	FNCALL	_change_heat,___flge
   448                           	FNCALL	_change_heat,___flsub
   449                           	FNCALL	___flsub,___fladd
   450                           	FNCALL	___flmul,__Umul8_16
   451                           	FNROOT	_main
   452                           	global	_temp_cible
   453                           psect	idataBANK1,class=CODE,space=0,delta=2,noexec
   454                           global __pidataBANK1
   455                           __pidataBANK1:
   456  0023                     	file	"./heat.h"
   457                           	line	25
   458                           
   459                           ;initializer for _temp_cible
   460                           	retlw	0x0
   461  0023  3400               	retlw	0x0
   462  0024  3400               	retlw	0xf0
   463  0025  34F0               	retlw	0x41
   464  0026  3441               
   465                           	global	_temp
   466                           	global	_tension
   467                           	global	_ADRESH
   468                           _ADRESH	set	0x1E
   469  001E                     	global	_ADCON0bits
   470                           _ADCON0bits	set	0x1F
   471  001F                     	global	_ADCON0
   472                           _ADCON0	set	0x1F
   473  001F                     	global	_RC3
   474                           _RC3	set	0x3B
   475  003B                     	global	_RC7
   476                           _RC7	set	0x3F
   477  003F                     	global	_RC6
   478                           _RC6	set	0x3E
   479  003E                     	global	_RC5
   480                           _RC5	set	0x3D
   481  003D                     	global	_RC4
   482                           _RC4	set	0x3C
   483  003C                     	global	_RD1
   484                           _RD1	set	0x41
   485  0041                     	global	_RD0
   486                           _RD0	set	0x40
   487  0040                     	global	_RC1
   488                           _RC1	set	0x39
   489  0039                     	global	_RC0
   490                           _RC0	set	0x38
   491  0038                     	global	_ADRESL
   492                           _ADRESL	set	0x9E
   493  009E                     	global	_ADCON1
   494                           _ADCON1	set	0x9F
   495  009F                     	global	_TRISA
   496                           _TRISA	set	0x85
   497  0085                     	global	_TRISD
   498                           _TRISD	set	0x88
   499  0088                     	global	_TRISC
   500                           _TRISC	set	0x87
   501  0087                     ; #config settings
   502                           global __CFG_FOSC$HS
   503                           __CFG_FOSC$HS equ 0x0
   504  0000                     global __CFG_WDTE$OFF
   505                           __CFG_WDTE$OFF equ 0x0
   506  0000                     global __CFG_PWRTE$OFF
   507                           __CFG_PWRTE$OFF equ 0x0
   508  0000                     global __CFG_CP$OFF
   509                           __CFG_CP$OFF equ 0x0
   510  0000                     global __CFG_BOREN$ON
   511                           __CFG_BOREN$ON equ 0x0
   512  0000                     global __CFG_LVP$OFF
   513                           __CFG_LVP$OFF equ 0x0
   514  0000                     global __CFG_CPD$OFF
   515                           __CFG_CPD$OFF equ 0x0
   516  0000                     global __CFG_WRT$ON
   517                           __CFG_WRT$ON equ 0x0
   518  0000                     	file	"C:\Users\Abdel\AppData\Local\Temp\sg4k."
   519                           	line	#
   520                           psect cinit,class=CODE,delta=2
   521                           global start_initialization
   522                           start_initialization:
   523  07DA                     
   524                           global __initialization
   525                           __initialization:
   526  07DA                     psect	bssBANK1,class=BANK1,space=1,noexec
   527                           global __pbssBANK1
   528                           __pbssBANK1:
   529  00A0                     _temp:
   530  00A0                            ds      4
   531  00A0                     
   532                           _tension:
   533  00A4                            ds      4
   534  00A4                     
   535                           psect	dataBANK1,class=BANK1,space=1,noexec
   536                           global __pdataBANK1
   537                           __pdataBANK1:
   538  00A8                     	file	"./heat.h"
   539                           	line	25
   540                           _temp_cible:
   541  00A8                            ds      4
   542  00A8                     
   543                           	file	"C:\Users\Abdel\AppData\Local\Temp\sg4k."
   544                           	line	#
   545                           ; Initialize objects allocated to BANK1
   546                           	global __pidataBANK1
   547                           psect cinit,class=CODE,delta=2,merge=1
   548                           	bsf	status, 5	;RP0=1, select bank1
   549  07DA  1683               	bcf	status, 6	;RP1=0, select bank1
   550  07DB  1303               	fcall	__pidataBANK1+0		;fetch initializer
   551  07DC  120A  118A  2023  120A  118A  	movwf	__pdataBANK1+0&07fh		
   552  07E1  00A8               	fcall	__pidataBANK1+1		;fetch initializer
   553  07E2  120A  118A  2024  120A  118A  	movwf	__pdataBANK1+1&07fh		
   554  07E7  00A9               	fcall	__pidataBANK1+2		;fetch initializer
   555  07E8  120A  118A  2025  120A  118A  	movwf	__pdataBANK1+2&07fh		
   556  07ED  00AA               	fcall	__pidataBANK1+3		;fetch initializer
   557  07EE  120A  118A  2026  120A  118A  	movwf	__pdataBANK1+3&07fh		
   558  07F3  00AB               	line	#
   559                           ; Clear objects allocated to BANK1
   560                           psect cinit,class=CODE,delta=2,merge=1
   561                           	clrf	((__pbssBANK1)+0)&07Fh
   562  07F4  01A0               	clrf	((__pbssBANK1)+1)&07Fh
   563  07F5  01A1               	clrf	((__pbssBANK1)+2)&07Fh
   564  07F6  01A2               	clrf	((__pbssBANK1)+3)&07Fh
   565  07F7  01A3               	clrf	((__pbssBANK1)+4)&07Fh
   566  07F8  01A4               	clrf	((__pbssBANK1)+5)&07Fh
   567  07F9  01A5               	clrf	((__pbssBANK1)+6)&07Fh
   568  07FA  01A6               	clrf	((__pbssBANK1)+7)&07Fh
   569  07FB  01A7               psect cinit,class=CODE,delta=2,merge=1
   570                           global end_of_initialization,__end_of__initialization
   571                           
   572                           ;End of C runtime variable initialization code
   573                           
   574                           end_of_initialization:
   575  07FC                     __end_of__initialization:
   576  07FC                     clrf status
   577  07FC  0183               ljmp _main	;jump to C main() function
   578  07FD  120A  158A  297F   psect	cstackBANK1,class=BANK1,space=1,noexec
   579                           global __pcstackBANK1
   580                           __pcstackBANK1:
   581  00AC                     ??_main:	; 1 bytes @ 0x0
   582  00AC                     	ds	3
   583  00AC                     psect	cstackCOMMON,class=COMMON,space=1,noexec
   584                           global __pcstackCOMMON
   585                           __pcstackCOMMON:
   586  0070                     ?___fleq:	; 1 bit 
   587  0070                     ?_watch_heat:	; 1 bytes @ 0x0
   588  0070                     ?_main:	; 1 bytes @ 0x0
   589  0070                     ?_change_heat:	; 1 bytes @ 0x0
   590  0070                     	global	?__Umul8_16
   591                           ?__Umul8_16:	; 2 bytes @ 0x0
   592  0070                     	global	?___xxtofl
   593                           ?___xxtofl:	; 4 bytes @ 0x0
   594  0070                     	global	__Umul8_16@multiplicand
   595                           __Umul8_16@multiplicand:	; 1 bytes @ 0x0
   596  0070                     	global	___fleq@ff1
   597                           ___fleq@ff1:	; 4 bytes @ 0x0
   598  0070                     	global	___xxtofl@val
   599                           ___xxtofl@val:	; 4 bytes @ 0x0
   600  0070                     	ds	2
   601  0070                     ??__Umul8_16:	; 1 bytes @ 0x2
   602  0072                     	ds	2
   603  0072                     ??___xxtofl:	; 1 bytes @ 0x4
   604  0074                     	global	__Umul8_16@product
   605                           __Umul8_16@product:	; 2 bytes @ 0x4
   606  0074                     	global	___fleq@ff2
   607                           ___fleq@ff2:	; 4 bytes @ 0x4
   608  0074                     	ds	2
   609  0074                     	global	__Umul8_16@word_mpld
   610                           __Umul8_16@word_mpld:	; 2 bytes @ 0x6
   611  0076                     	ds	2
   612  0076                     ??___fleq:	; 1 bytes @ 0x8
   613  0078                     	global	___xxtofl@sign
   614                           ___xxtofl@sign:	; 1 bytes @ 0x8
   615  0078                     	global	__Umul8_16@multiplier
   616                           __Umul8_16@multiplier:	; 1 bytes @ 0x8
   617  0078                     	ds	1
   618  0078                     	global	___xxtofl@exp
   619                           ___xxtofl@exp:	; 1 bytes @ 0x9
   620  0079                     	ds	1
   621  0079                     	global	___xxtofl@arg
   622                           ___xxtofl@arg:	; 4 bytes @ 0xA
   623  007A                     	ds	2
   624  007A                     ??_light:	; 1 bytes @ 0xC
   625  007C                     	ds	2
   626  007C                     ??_change_heat:	; 1 bytes @ 0xE
   627  007E                     ??_check_heat:	; 1 bytes @ 0xE
   628  007E                     ??___flsub:	; 1 bytes @ 0xE
   629  007E                     psect	cstackBANK0,class=BANK0,space=1,noexec
   630                           global __pcstackBANK0
   631                           __pcstackBANK0:
   632  0020                     ?_light:	; 1 bytes @ 0x0
   633  0020                     	global	?___flmul
   634                           ?___flmul:	; 4 bytes @ 0x0
   635  0020                     	global	light@temp
   636                           light@temp:	; 4 bytes @ 0x0
   637  0020                     	global	___flmul@b
   638                           ___flmul@b:	; 4 bytes @ 0x0
   639  0020                     	ds	4
   640  0020                     	global	___flmul@a
   641                           ___flmul@a:	; 4 bytes @ 0x4
   642  0024                     	ds	4
   643  0024                     ??___flmul:	; 1 bytes @ 0x8
   644  0028                     	ds	5
   645  0028                     	global	___flmul@sign
   646                           ___flmul@sign:	; 1 bytes @ 0xD
   647  002D                     	ds	1
   648  002D                     	global	___flmul@grs
   649                           ___flmul@grs:	; 4 bytes @ 0xE
   650  002E                     	ds	4
   651  002E                     	global	___flmul@aexp
   652                           ___flmul@aexp:	; 1 bytes @ 0x12
   653  0032                     	ds	1
   654  0032                     	global	___flmul@bexp
   655                           ___flmul@bexp:	; 1 bytes @ 0x13
   656  0033                     	ds	1
   657  0033                     	global	___flmul@prod
   658                           ___flmul@prod:	; 4 bytes @ 0x14
   659  0034                     	ds	4
   660  0034                     	global	___flmul@temp
   661                           ___flmul@temp:	; 2 bytes @ 0x18
   662  0038                     	ds	2
   663  0038                     	global	?___fladd
   664                           ?___fladd:	; 4 bytes @ 0x1A
   665  003A                     	global	?___fldiv
   666                           ?___fldiv:	; 4 bytes @ 0x1A
   667  003A                     	global	___fladd@b
   668                           ___fladd@b:	; 4 bytes @ 0x1A
   669  003A                     	global	___fldiv@a
   670                           ___fldiv@a:	; 4 bytes @ 0x1A
   671  003A                     	ds	4
   672  003A                     	global	___fladd@a
   673                           ___fladd@a:	; 4 bytes @ 0x1E
   674  003E                     	global	___fldiv@b
   675                           ___fldiv@b:	; 4 bytes @ 0x1E
   676  003E                     	ds	4
   677  003E                     ??___fladd:	; 1 bytes @ 0x22
   678  0042                     ??___fldiv:	; 1 bytes @ 0x22
   679  0042                     	ds	5
   680  0042                     	global	___fldiv@rem
   681                           ___fldiv@rem:	; 4 bytes @ 0x27
   682  0047                     	ds	4
   683  0047                     	global	___fldiv@sign
   684                           ___fldiv@sign:	; 1 bytes @ 0x2B
   685  004B                     	ds	1
   686  004B                     	global	___fldiv@new_exp
   687                           ___fldiv@new_exp:	; 2 bytes @ 0x2C
   688  004C                     	ds	2
   689  004C                     	global	___fladd@signs
   690                           ___fladd@signs:	; 1 bytes @ 0x2E
   691  004E                     	global	___fldiv@grs
   692                           ___fldiv@grs:	; 4 bytes @ 0x2E
   693  004E                     	ds	1
   694  004E                     	global	___fladd@aexp
   695                           ___fladd@aexp:	; 1 bytes @ 0x2F
   696  004F                     	ds	1
   697  004F                     	global	___fladd@bexp
   698                           ___fladd@bexp:	; 1 bytes @ 0x30
   699  0050                     	ds	1
   700  0050                     	global	___fladd@grs
   701                           ___fladd@grs:	; 1 bytes @ 0x31
   702  0051                     	ds	1
   703  0051                     ?___flge:	; 1 bit 
   704  0052                     	global	?___flsub
   705                           ?___flsub:	; 4 bytes @ 0x32
   706  0052                     	global	___fldiv@bexp
   707                           ___fldiv@bexp:	; 1 bytes @ 0x32
   708  0052                     	global	___flge@ff1
   709                           ___flge@ff1:	; 4 bytes @ 0x32
   710  0052                     	global	___flsub@a
   711                           ___flsub@a:	; 4 bytes @ 0x32
   712  0052                     	ds	1
   713  0052                     	global	___fldiv@aexp
   714                           ___fldiv@aexp:	; 1 bytes @ 0x33
   715  0053                     	ds	3
   716  0053                     	global	___flge@ff2
   717                           ___flge@ff2:	; 4 bytes @ 0x36
   718  0056                     	global	___flsub@b
   719                           ___flsub@b:	; 4 bytes @ 0x36
   720  0056                     	ds	4
   721  0056                     ??___flge:	; 1 bytes @ 0x3A
   722  005A                     	ds	8
   723  005A                     ?_check_heat:	; 1 bytes @ 0x42
   724  0062                     	global	check_heat@temp
   725                           check_heat@temp:	; 4 bytes @ 0x42
   726  0062                     	ds	4
   727  0062                     ??_watch_heat:	; 1 bytes @ 0x46
   728  0066                     	ds	4
   729  0066                     	global	watch_heat@ValeurADC
   730                           watch_heat@ValeurADC:	; 4 bytes @ 0x4A
   731  006A                     	ds	4
   732  006A                     	global	main@i
   733                           main@i:	; 2 bytes @ 0x4E
   734  006E                     	ds	2
   735  006E                     ;!
   736                           ;!Data Sizes:
   737                           ;!    Strings     0
   738                           ;!    Constant    0
   739                           ;!    Data        4
   740                           ;!    BSS         8
   741                           ;!    Persistent  0
   742                           ;!    Stack       0
   743                           ;!
   744                           ;!Auto Spaces:
   745                           ;!    Space          Size  Autos    Used
   746                           ;!    COMMON           14     14      14
   747                           ;!    BANK0            80     80      80
   748                           ;!    BANK1            80      3      15
   749                           ;!    BANK3            96      0       0
   750                           ;!    BANK2            96      0       0
   751                           
   752                           ;!
   753                           ;!Pointer List with Targets:
   754                           ;!
   755                           ;!    None.
   756                           
   757                           
   758                           ;!
   759                           ;!Critical Paths under _main in COMMON
   760                           ;!
   761                           ;!    _watch_heat->___xxtofl
   762                           ;!    _light->___fleq
   763                           ;!    ___flmul->___xxtofl
   764                           ;!    ___fldiv->___xxtofl
   765                           ;!
   766                           ;!Critical Paths under _main in BANK0
   767                           ;!
   768                           ;!    _main->_watch_heat
   769                           ;!    _watch_heat->_check_heat
   770                           ;!    _check_heat->___flge
   771                           ;!    _change_heat->___flge
   772                           ;!    ___flsub->___fladd
   773                           ;!    ___fladd->___flmul
   774                           ;!    ___flge->___fladd
   775                           ;!    ___fldiv->___flmul
   776                           ;!
   777                           ;!Critical Paths under _main in BANK1
   778                           ;!
   779                           ;!    None.
   780                           ;!
   781                           ;!Critical Paths under _main in BANK3
   782                           ;!
   783                           ;!    None.
   784                           ;!
   785                           ;!Critical Paths under _main in BANK2
   786                           ;!
   787                           ;!    None.
   788                           
   789 ;;
   790 ;;Main: autosize = 0, tempsize = 3, incstack = 0, save=0
   791 ;;
   792                           
   793                           ;!
   794                           ;!Call Graph Tables:
   795                           ;!
   796                           ;! ---------------------------------------------------------------------------------
   797                           ;! (Depth) Function   	        Calls       Base Space   Used Autos Params    Refs
   798                           ;! ---------------------------------------------------------------------------------
   799                           ;! (0) _main                                                 5     5      0   20088
   800                           ;!                                             78 BANK0      2     2      0
   801                           ;!                                              0 BANK1      3     3      0
   802                           ;!                         _watch_heat
   803                           ;! ---------------------------------------------------------------------------------
   804                           ;! (1) _watch_heat                                           8     8      0   20042
   805                           ;!                                             70 BANK0      8     8      0
   806                           ;!                            ___fladd
   807                           ;!                            ___fldiv
   808                           ;!                            ___flmul
   809                           ;!                           ___xxtofl
   810                           ;!                        _change_heat
   811                           ;!                         _check_heat
   812                           ;!                              _light
   813                           ;! ---------------------------------------------------------------------------------
   814                           ;! (2) _light                                                4     0      4    1036
   815                           ;!                                              0 BANK0      4     0      4
   816                           ;!                             ___fleq
   817                           ;! ---------------------------------------------------------------------------------
   818                           ;! (3) ___fleq                                              12     4      8     850
   819                           ;!                                              0 COMMON    12     4      8
   820                           ;! ---------------------------------------------------------------------------------
   821                           ;! (2) _check_heat                                           4     0      4    4306
   822                           ;!                                             66 BANK0      4     0      4
   823                           ;!                            ___fladd
   824                           ;!                             ___flge
   825                           ;! ---------------------------------------------------------------------------------
   826                           ;! (2) _change_heat                                          0     0      0    7387
   827                           ;!                            ___fladd
   828                           ;!                             ___flge
   829                           ;!                            ___flsub
   830                           ;! ---------------------------------------------------------------------------------
   831                           ;! (3) ___flsub                                              8     0      8    3245
   832                           ;!                                             50 BANK0      8     0      8
   833                           ;!                            ___fladd
   834                           ;! ---------------------------------------------------------------------------------
   835                           ;! (3) ___fladd                                             24    16      8    3048
   836                           ;!                                             26 BANK0     24    16      8
   837                           ;!                            ___flmul (ARG)
   838                           ;! ---------------------------------------------------------------------------------
   839                           ;! (3) ___flge                                              16     8      8    1094
   840                           ;!                                             50 BANK0     16     8      8
   841                           ;!                            ___fladd (ARG)
   842                           ;! ---------------------------------------------------------------------------------
   843                           ;! (2) ___xxtofl                                            14    10      4     398
   844                           ;!                                              0 COMMON    14    10      4
   845                           ;! ---------------------------------------------------------------------------------
   846                           ;! (2) ___flmul                                             26    18      8    2569
   847                           ;!                                              0 BANK0     26    18      8
   848                           ;!                          __Umul8_16
   849                           ;!                           ___xxtofl (ARG)
   850                           ;! ---------------------------------------------------------------------------------
   851                           ;! (3) __Umul8_16                                            9     7      2     799
   852                           ;!                                              0 COMMON     9     7      2
   853                           ;! ---------------------------------------------------------------------------------
   854                           ;! (2) ___fldiv                                             26    18      8    1273
   855                           ;!                                             26 BANK0     26    18      8
   856                           ;!                            ___flmul (ARG)
   857                           ;!                           ___xxtofl (ARG)
   858                           ;! ---------------------------------------------------------------------------------
   859                           ;! Estimated maximum stack depth 3
   860                           ;! ---------------------------------------------------------------------------------
   861                           ;!
   862                           ;! Call Graph Graphs:
   863                           ;!
   864                           ;! _main (ROOT)
   865                           ;!   _watch_heat
   866                           ;!     ___fladd
   867                           ;!       ___flmul (ARG)
   868                           ;!         __Umul8_16
   869                           ;!         ___xxtofl (ARG)
   870                           ;!     ___fldiv
   871                           ;!       ___flmul (ARG)
   872                           ;!         __Umul8_16
   873                           ;!         ___xxtofl (ARG)
   874                           ;!       ___xxtofl (ARG)
   875                           ;!     ___flmul
   876                           ;!       __Umul8_16
   877                           ;!       ___xxtofl (ARG)
   878                           ;!     ___xxtofl
   879                           ;!     _change_heat
   880                           ;!       ___fladd
   881                           ;!         ___flmul (ARG)
   882                           ;!           __Umul8_16
   883                           ;!           ___xxtofl (ARG)
   884                           ;!       ___flge
   885                           ;!         ___fladd (ARG)
   886                           ;!           ___flmul (ARG)
   887                           ;!             __Umul8_16
   888                           ;!             ___xxtofl (ARG)
   889                           ;!       ___flsub
   890                           ;!         ___fladd
   891                           ;!           ___flmul (ARG)
   892                           ;!             __Umul8_16
   893                           ;!             ___xxtofl (ARG)
   894                           ;!     _check_heat
   895                           ;!       ___fladd
   896                           ;!         ___flmul (ARG)
   897                           ;!           __Umul8_16
   898                           ;!           ___xxtofl (ARG)
   899                           ;!       ___flge
   900                           ;!         ___fladd (ARG)
   901                           ;!           ___flmul (ARG)
   902                           ;!             __Umul8_16
   903                           ;!             ___xxtofl (ARG)
   904                           ;!     _light
   905                           ;!       ___fleq
   906                           ;!
   907                           
   908                           ;! Address spaces:
   909                           
   910                           ;!Name               Size   Autos  Total    Cost      Usage
   911                           ;!BANK3               60      0       0       9        0.0%
   912                           ;!BITBANK3            60      0       0       8        0.0%
   913                           ;!SFR3                 0      0       0       4        0.0%
   914                           ;!BITSFR3              0      0       0       4        0.0%
   915                           ;!BANK2               60      0       0      11        0.0%
   916                           ;!BITBANK2            60      0       0      10        0.0%
   917                           ;!SFR2                 0      0       0       5        0.0%
   918                           ;!BITSFR2              0      0       0       5        0.0%
   919                           ;!BANK1               50      3       F       7       18.8%
   920                           ;!BITBANK1            50      0       0       6        0.0%
   921                           ;!SFR1                 0      0       0       2        0.0%
   922                           ;!BITSFR1              0      0       0       2        0.0%
   923                           ;!BANK0               50     50      50       5      100.0%
   924                           ;!BITBANK0            50      0       0       4        0.0%
   925                           ;!SFR0                 0      0       0       1        0.0%
   926                           ;!BITSFR0              0      0       0       1        0.0%
   927                           ;!COMMON               E      E       E       1      100.0%
   928                           ;!BITCOMMON            E      0       0       0        0.0%
   929                           ;!CODE                 0      0       0       0        0.0%
   930                           ;!DATA                 0      0      6D      12        0.0%
   931                           ;!ABS                  0      0      6D       3        0.0%
   932                           ;!NULL                 0      0       0       0        0.0%
   933                           ;!STACK                0      0       0       2        0.0%
   934                           ;!EEDATA             100      0       0       0        0.0%
   935                           
   936                           	global	_main
   937                           
   938 ;; *************** function _main *****************
   939 ;; Defined at:
   940 ;;		line 5 in file "main.c"
   941 ;; Parameters:    Size  Location     Type
   942 ;;		None
   943 ;; Auto vars:     Size  Location     Type
   944 ;;  i               2   78[BANK0 ] int 
   945 ;; Return value:  Size  Location     Type
   946 ;;                  1    wreg      void 
   947 ;; Registers used:
   948 ;;		wreg, status,2, status,0, btemp+1, pclath, cstack
   949 ;; Tracked objects:
   950 ;;		On entry : B00/0
   951 ;;		On exit  : 0/0
   952 ;;		Unchanged: 0/0
   953 ;; Data sizes:     COMMON   BANK0   BANK1   BANK3   BANK2
   954 ;;      Params:         0       0       0       0       0
   955 ;;      Locals:         0       2       0       0       0
   956 ;;      Temps:          0       0       3       0       0
   957 ;;      Totals:         0       2       3       0       0
   958 ;;Total ram usage:        5 bytes
   959 ;; Hardware stack levels required when called:    4
   960 ;; This function calls:
   961 ;;		_watch_heat
   962 ;; This function is called by:
   963 ;;		Startup code after reset
   964 ;; This function uses a non-reentrant model
   965 ;;
   966                           psect	maintext,global,class=CODE,delta=2,split=1,group=0
   967                           	file	"main.c"
   968                           	line	5
   969                           global __pmaintext
   970                           __pmaintext:	;psect for function _main
   971  097F                     psect	maintext
   972                           	file	"main.c"
   973                           	line	5
   974                           	global	__size_of_main
   975                           	__size_of_main	equ	__end_of_main-_main
   976  0043                     	
   977                           _main:	
   978  097F                     ;incstack = 0
   979                           	opt	stack 4
   980                           ; Regs used in _main: [wreg+status,2+status,0+btemp+1+pclath+cstack]
   981                           	line	7
   982                           	
   983                           l1991:	
   984  097F                     ;main.c: 7:     TRISC = 0b00000011;
   985                           	movlw	low(03h)
   986  097F  3003               	bsf	status, 5	;RP0=1, select bank1
   987  0980  1683               	bcf	status, 6	;RP1=0, select bank1
   988  0981  1303               	movwf	(135)^080h	;volatile
   989  0982  0087               	line	8
   990                           	
   991                           l1993:	
   992  0983                     ;main.c: 8:     for (int i = 0; i < 10; i++) {
   993                           	bcf	status, 5	;RP0=0, select bank0
   994  0983  1283               	bcf	status, 6	;RP1=0, select bank0
   995  0984  1303               	clrf	(main@i)
   996  0985  01EE               	clrf	(main@i+1)
   997  0986  01EF               	
   998                           l1995:	
   999  0987                     	movf	(main@i+1),w
  1000  0987  086F               	xorlw	80h
  1001  0988  3A80               	movwf	btemp+1
  1002  0989  00FF               	movlw	(0)^80h
  1003  098A  3080               	subwf	btemp+1,w
  1004  098B  027F               	skipz
  1005  098C  1D03               	goto	u3115
  1006  098D  2990               	movlw	0Ah
  1007  098E  300A               	subwf	(main@i),w
  1008  098F  026E               u3115:
  1009  0990                     
  1010                           	skipc
  1011  0990  1C03               	goto	u3111
  1012  0991  2993               	goto	u3110
  1013  0992  2994               u3111:
  1014  0993                     	goto	l1999
  1015  0993  2996               u3110:
  1016  0994                     	goto	l19
  1017  0994  29BF               	
  1018                           l1997:	
  1019  0995                     	goto	l19
  1020  0995  29BF               	
  1021                           l17:	
  1022  0996                     	line	9
  1023                           	
  1024                           l1999:	
  1025  0996                     ;main.c: 9:         watch_heat();
  1026                           	fcall	_watch_heat
  1027  0996  120A  118A  2077  120A  158A  	line	10
  1028                           	
  1029                           l2001:	
  1030  099B                     ;main.c: 10:         _delay((unsigned long)((500)*(4000000/4000.0)));
  1031                           	opt asmopt_push
  1032                           opt asmopt_off
  1033                           movlw  3
  1034  099B  3003               	bsf	status, 5	;RP0=1, select bank1
  1035  099C  1683               	bcf	status, 6	;RP1=0, select bank1
  1036  099D  1303               movwf	((??_main+0)^080h+0+2),f
  1037  099E  00AE               movlw	138
  1038  099F  308A               movwf	((??_main+0)^080h+0+1),f
  1039  09A0  00AD               	movlw	85
  1040  09A1  3055               movwf	((??_main+0)^080h+0),f
  1041  09A2  00AC               	u3137:
  1042  09A3                     decfsz	((??_main+0)^080h+0),f
  1043  09A3  0BAC               	goto	u3137
  1044  09A4  29A3               	decfsz	((??_main+0)^080h+0+1),f
  1045  09A5  0BAD               	goto	u3137
  1046  09A6  29A3               	decfsz	((??_main+0)^080h+0+2),f
  1047  09A7  0BAE               	goto	u3137
  1048  09A8  29A3               opt asmopt_pop
  1049                           
  1050                           	line	11
  1051                           	
  1052                           l2003:	
  1053  09A9                     ;main.c: 11:     }
  1054                           	movlw	01h
  1055  09A9  3001               	bcf	status, 5	;RP0=0, select bank0
  1056  09AA  1283               	bcf	status, 6	;RP1=0, select bank0
  1057  09AB  1303               	addwf	(main@i),f
  1058  09AC  07EE               	skipnc
  1059  09AD  1803               	incf	(main@i+1),f
  1060  09AE  0AEF               	movlw	0
  1061  09AF  3000               	addwf	(main@i+1),f
  1062  09B0  07EF               	
  1063                           l2005:	
  1064  09B1                     	movf	(main@i+1),w
  1065  09B1  086F               	xorlw	80h
  1066  09B2  3A80               	movwf	btemp+1
  1067  09B3  00FF               	movlw	(0)^80h
  1068  09B4  3080               	subwf	btemp+1,w
  1069  09B5  027F               	skipz
  1070  09B6  1D03               	goto	u3125
  1071  09B7  29BA               	movlw	0Ah
  1072  09B8  300A               	subwf	(main@i),w
  1073  09B9  026E               u3125:
  1074  09BA                     
  1075                           	skipc
  1076  09BA  1C03               	goto	u3121
  1077  09BB  29BD               	goto	u3120
  1078  09BC  29BE               u3121:
  1079  09BD                     	goto	l1999
  1080  09BD  2996               u3120:
  1081  09BE                     	goto	l19
  1082  09BE  29BF               	
  1083                           l18:	
  1084  09BF                     	line	13
  1085                           ;main.c: 12:     return;
  1086                           	
  1087                           l19:	
  1088  09BF                     	global	start
  1089                           	ljmp	start
  1090  09BF  120A  118A  2800   	opt stack 0
  1091                           GLOBAL	__end_of_main
  1092                           	__end_of_main:
  1093  09C2                     	signat	_main,89
  1094                           	global	_watch_heat
  1095                           
  1096 ;; *************** function _watch_heat *****************
  1097 ;; Defined at:
  1098 ;;		line 33 in file "heat.c"
  1099 ;; Parameters:    Size  Location     Type
  1100 ;;		None
  1101 ;; Auto vars:     Size  Location     Type
  1102 ;;  ValeurADC       4   74[BANK0 ] unsigned long 
  1103 ;; Return value:  Size  Location     Type
  1104 ;;                  1    wreg      void 
  1105 ;; Registers used:
  1106 ;;		wreg, status,2, status,0, btemp+1, pclath, cstack
  1107 ;; Tracked objects:
  1108 ;;		On entry : 0/0
  1109 ;;		On exit  : 0/0
  1110 ;;		Unchanged: 0/0
  1111 ;; Data sizes:     COMMON   BANK0   BANK1   BANK3   BANK2
  1112 ;;      Params:         0       0       0       0       0
  1113 ;;      Locals:         0       4       0       0       0
  1114 ;;      Temps:          0       4       0       0       0
  1115 ;;      Totals:         0       8       0       0       0
  1116 ;;Total ram usage:        8 bytes
  1117 ;; Hardware stack levels used:    1
  1118 ;; Hardware stack levels required when called:    3
  1119 ;; This function calls:
  1120 ;;		___fladd
  1121 ;;		___fldiv
  1122 ;;		___flmul
  1123 ;;		___xxtofl
  1124 ;;		_change_heat
  1125 ;;		_check_heat
  1126 ;;		_light
  1127 ;; This function is called by:
  1128 ;;		_main
  1129 ;; This function uses a non-reentrant model
  1130 ;;
  1131                           psect	text1,local,class=CODE,delta=2,merge=1,group=0
  1132                           	file	"heat.c"
  1133                           	line	33
  1134                           global __ptext1
  1135                           __ptext1:	;psect for function _watch_heat
  1136  0077                     psect	text1
  1137                           	file	"heat.c"
  1138                           	line	33
  1139                           	global	__size_of_watch_heat
  1140                           	__size_of_watch_heat	equ	__end_of_watch_heat-_watch_heat
  1141  0132                     	
  1142                           _watch_heat:	
  1143  0077                     ;incstack = 0
  1144                           	opt	stack 4
  1145                           ; Regs used in _watch_heat: [wreg+status,2+status,0+btemp+1+pclath+cstack]
  1146                           	line	34
  1147                           	
  1148                           l1977:	
  1149  0077                     ;heat.c: 34:     unsigned long ValeurADC = 0L;
  1150                           	movlw	high highword(0)
  1151  0077  3000               	bcf	status, 5	;RP0=0, select bank0
  1152  0078  1283               	bcf	status, 6	;RP1=0, select bank0
  1153  0079  1303               	movwf	(watch_heat@ValeurADC+3)
  1154  007A  00ED               	movlw	low highword(0)
  1155  007B  3000               	movwf	(watch_heat@ValeurADC+2)
  1156  007C  00EC               	movlw	high(0)
  1157  007D  3000               	movwf	(watch_heat@ValeurADC+1)
  1158  007E  00EB               	movlw	low(0)
  1159  007F  3000               	movwf	(watch_heat@ValeurADC)
  1160  0080  00EA               
  1161                           	line	36
  1162                           ;heat.c: 36:     TRISA = 0xFF;
  1163                           	movlw	low(0FFh)
  1164  0081  30FF               	bsf	status, 5	;RP0=1, select bank1
  1165  0082  1683               	bcf	status, 6	;RP1=0, select bank1
  1166  0083  1303               	movwf	(133)^080h	;volatile
  1167  0084  0085               	line	37
  1168                           ;heat.c: 37:     ADCON1 = 0b10001110;
  1169                           	movlw	low(08Eh)
  1170  0085  308E               	movwf	(159)^080h	;volatile
  1171  0086  009F               	line	38
  1172                           ;heat.c: 38:     ADCON0 = 0b01000001;
  1173                           	movlw	low(041h)
  1174  0087  3041               	bcf	status, 5	;RP0=0, select bank0
  1175  0088  1283               	bcf	status, 6	;RP1=0, select bank0
  1176  0089  1303               	movwf	(31)	;volatile
  1177  008A  009F               	line	39
  1178                           	
  1179                           l1979:	
  1180  008B                     ;heat.c: 39:     ADCON0bits.GO_DONE = 1;
  1181                           	bsf	(31),2	;volatile
  1182  008B  151F               	line	40
  1183                           ;heat.c: 40:     while (ADCON0bits.GO_DONE == 1);
  1184                           	goto	l79
  1185  008C  288D               	
  1186                           l80:	
  1187  008D                     	
  1188                           l79:	
  1189  008D                     	btfsc	(31),2	;volatile
  1190  008D  191F               	goto	u3091
  1191  008E  2890               	goto	u3090
  1192  008F  2891               u3091:
  1193  0090                     	goto	l79
  1194  0090  288D               u3090:
  1195  0091                     	goto	l1981
  1196  0091  2892               	
  1197                           l81:	
  1198  0092                     	line	41
  1199                           	
  1200                           l1981:	
  1201  0092                     ;heat.c: 41:     ValeurADC = ADRESH << 8;
  1202                           	movf	(30),w	;volatile
  1203  0092  081E               	movwf	(??_watch_heat+0)+0
  1204  0093  00E6               	clrf	(??_watch_heat+0)+0+1
  1205  0094  01E7               	movf	(??_watch_heat+0)+0,w
  1206  0095  0866               	movwf	(??_watch_heat+0)+1
  1207  0096  00E7               	clrf	(??_watch_heat+0)+0
  1208  0097  01E6               	movf	0+(??_watch_heat+0)+0,w
  1209  0098  0866               	movwf	(watch_heat@ValeurADC)
  1210  0099  00EA               	movf	1+(??_watch_heat+0)+0,w
  1211  009A  0867               	movwf	(watch_heat@ValeurADC+1)
  1212  009B  00EB               	movlw	0
  1213  009C  3000               	btfsc	(watch_heat@ValeurADC+1),7
  1214  009D  1BEB               	movlw	255
  1215  009E  30FF               	movwf	(watch_heat@ValeurADC+2)
  1216  009F  00EC               	movwf	(watch_heat@ValeurADC+3)
  1217  00A0  00ED               	line	42
  1218                           	
  1219                           l1983:	
  1220  00A1                     ;heat.c: 42:     ValeurADC += ADRESL;
  1221                           	bsf	status, 5	;RP0=1, select bank1
  1222  00A1  1683               	bcf	status, 6	;RP1=0, select bank1
  1223  00A2  1303               	movf	(158)^080h,w	;volatile
  1224  00A3  081E               	bcf	status, 5	;RP0=0, select bank0
  1225  00A4  1283               	bcf	status, 6	;RP1=0, select bank0
  1226  00A5  1303               	movwf	(??_watch_heat+0)+0
  1227  00A6  00E6               	clrf	(??_watch_heat+0)+0+1
  1228  00A7  01E7               	clrf	(??_watch_heat+0)+0+2
  1229  00A8  01E8               	clrf	(??_watch_heat+0)+0+3
  1230  00A9  01E9               	movf	0+(??_watch_heat+0)+0,w
  1231  00AA  0866               	addwf	(watch_heat@ValeurADC),f
  1232  00AB  07EA               	movf	1+(??_watch_heat+0)+0,w
  1233  00AC  0867               	clrz
  1234  00AD  1103               	skipnc
  1235  00AE  1803               	addlw	1
  1236  00AF  3E01               	skipnz
  1237  00B0  1903               	goto	u3101
  1238  00B1  28B3               	addwf	(watch_heat@ValeurADC+1),f
  1239  00B2  07EB               u3101:
  1240  00B3                     	movf	2+(??_watch_heat+0)+0,w
  1241  00B3  0868               	clrz
  1242  00B4  1103               	skipnc
  1243  00B5  1803               	addlw	1
  1244  00B6  3E01               	skipnz
  1245  00B7  1903               	goto	u3102
  1246  00B8  28BA               	addwf	(watch_heat@ValeurADC+2),f
  1247  00B9  07EC               u3102:
  1248  00BA                     	movf	3+(??_watch_heat+0)+0,w
  1249  00BA  0869               	clrz
  1250  00BB  1103               	skipnc
  1251  00BC  1803               	addlw	1
  1252  00BD  3E01               	skipnz
  1253  00BE  1903               	goto	u3103
  1254  00BF  28C1               	addwf	(watch_heat@ValeurADC+3),f
  1255  00C0  07ED               u3103:
  1256  00C1                     
  1257                           	line	43
  1258                           	
  1259                           l1985:	
  1260  00C1                     ;heat.c: 43:     tension = (5.0f - 0.0f) * ValeurADC / 1024;
  1261                           	movlw	0x44
  1262  00C1  3044               	movwf	(___fldiv@a+3)
  1263  00C2  00BD               	movlw	0x80
  1264  00C3  3080               	movwf	(___fldiv@a+2)
  1265  00C4  00BC               	movlw	0x0
  1266  00C5  3000               	movwf	(___fldiv@a+1)
  1267  00C6  00BB               	movlw	0x0
  1268  00C7  3000               	movwf	(___fldiv@a)
  1269  00C8  00BA               
  1270                           	movlw	0x40
  1271  00C9  3040               	movwf	(___flmul@b+3)
  1272  00CA  00A3               	movlw	0xa0
  1273  00CB  30A0               	movwf	(___flmul@b+2)
  1274  00CC  00A2               	movlw	0x0
  1275  00CD  3000               	movwf	(___flmul@b+1)
  1276  00CE  00A1               	movlw	0x0
  1277  00CF  3000               	movwf	(___flmul@b)
  1278  00D0  00A0               
  1279                           	movf	(watch_heat@ValeurADC+3),w
  1280  00D1  086D               	movwf	(___xxtofl@val+3)
  1281  00D2  00F3               	movf	(watch_heat@ValeurADC+2),w
  1282  00D3  086C               	movwf	(___xxtofl@val+2)
  1283  00D4  00F2               	movf	(watch_heat@ValeurADC+1),w
  1284  00D5  086B               	movwf	(___xxtofl@val+1)
  1285  00D6  00F1               	movf	(watch_heat@ValeurADC),w
  1286  00D7  086A               	movwf	(___xxtofl@val)
  1287  00D8  00F0               
  1288                           	movlw	low(0)
  1289  00D9  3000               	fcall	___xxtofl
  1290  00DA  120A  158A  2272  120A  118A  	movf	(3+(?___xxtofl)),w
  1291  00DF  0873               	bcf	status, 5	;RP0=0, select bank0
  1292  00E0  1283               	bcf	status, 6	;RP1=0, select bank0
  1293  00E1  1303               	movwf	(___flmul@a+3)
  1294  00E2  00A7               	movf	(2+(?___xxtofl)),w
  1295  00E3  0872               	movwf	(___flmul@a+2)
  1296  00E4  00A6               	movf	(1+(?___xxtofl)),w
  1297  00E5  0871               	movwf	(___flmul@a+1)
  1298  00E6  00A5               	movf	(0+(?___xxtofl)),w
  1299  00E7  0870               	movwf	(___flmul@a)
  1300  00E8  00A4               
  1301                           	fcall	___flmul
  1302  00E9  120A  118A  2465  120A  118A  	bcf	status, 5	;RP0=0, select bank0
  1303  00EE  1283               	bcf	status, 6	;RP1=0, select bank0
  1304  00EF  1303               	movf	(3+(?___flmul)),w
  1305  00F0  0823               	movwf	(___fldiv@b+3)
  1306  00F1  00C1               	movf	(2+(?___flmul)),w
  1307  00F2  0822               	movwf	(___fldiv@b+2)
  1308  00F3  00C0               	movf	(1+(?___flmul)),w
  1309  00F4  0821               	movwf	(___fldiv@b+1)
  1310  00F5  00BF               	movf	(0+(?___flmul)),w
  1311  00F6  0820               	movwf	(___fldiv@b)
  1312  00F7  00BE               
  1313                           	fcall	___fldiv
  1314  00F8  120A  158A  25F7  120A  118A  	bcf	status, 5	;RP0=0, select bank0
  1315  00FD  1283               	bcf	status, 6	;RP1=0, select bank0
  1316  00FE  1303               	movf	(3+(?___fldiv)),w
  1317  00FF  083D               	bsf	status, 5	;RP0=1, select bank1
  1318  0100  1683               	bcf	status, 6	;RP1=0, select bank1
  1319  0101  1303               	movwf	(_tension+3)^080h	;volatile
  1320  0102  00A7               	bcf	status, 5	;RP0=0, select bank0
  1321  0103  1283               	bcf	status, 6	;RP1=0, select bank0
  1322  0104  1303               	movf	(2+(?___fldiv)),w
  1323  0105  083C               	bsf	status, 5	;RP0=1, select bank1
  1324  0106  1683               	bcf	status, 6	;RP1=0, select bank1
  1325  0107  1303               	movwf	(_tension+2)^080h	;volatile
  1326  0108  00A6               	bcf	status, 5	;RP0=0, select bank0
  1327  0109  1283               	bcf	status, 6	;RP1=0, select bank0
  1328  010A  1303               	movf	(1+(?___fldiv)),w
  1329  010B  083B               	bsf	status, 5	;RP0=1, select bank1
  1330  010C  1683               	bcf	status, 6	;RP1=0, select bank1
  1331  010D  1303               	movwf	(_tension+1)^080h	;volatile
  1332  010E  00A5               	bcf	status, 5	;RP0=0, select bank0
  1333  010F  1283               	bcf	status, 6	;RP1=0, select bank0
  1334  0110  1303               	movf	(0+(?___fldiv)),w
  1335  0111  083A               	bsf	status, 5	;RP0=1, select bank1
  1336  0112  1683               	bcf	status, 6	;RP1=0, select bank1
  1337  0113  1303               	movwf	(_tension)^080h	;volatile
  1338  0114  00A4               
  1339                           	line	44
  1340                           	
  1341                           l1987:	
  1342  0115                     ;heat.c: 44:     temp = (tension * 8) + 10;
  1343                           	movlw	0x41
  1344  0115  3041               	bcf	status, 5	;RP0=0, select bank0
  1345  0116  1283               	bcf	status, 6	;RP1=0, select bank0
  1346  0117  1303               	movwf	(___fladd@b+3)
  1347  0118  00BD               	movlw	0x20
  1348  0119  3020               	movwf	(___fladd@b+2)
  1349  011A  00BC               	movlw	0x0
  1350  011B  3000               	movwf	(___fladd@b+1)
  1351  011C  00BB               	movlw	0x0
  1352  011D  3000               	movwf	(___fladd@b)
  1353  011E  00BA               
  1354                           	movlw	0x41
  1355  011F  3041               	movwf	(___flmul@b+3)
  1356  0120  00A3               	movlw	0x0
  1357  0121  3000               	movwf	(___flmul@b+2)
  1358  0122  00A2               	movlw	0x0
  1359  0123  3000               	movwf	(___flmul@b+1)
  1360  0124  00A1               	movlw	0x0
  1361  0125  3000               	movwf	(___flmul@b)
  1362  0126  00A0               
  1363                           	bsf	status, 5	;RP0=1, select bank1
  1364  0127  1683               	bcf	status, 6	;RP1=0, select bank1
  1365  0128  1303               	movf	(_tension+3)^080h,w	;volatile
  1366  0129  0827               	bcf	status, 5	;RP0=0, select bank0
  1367  012A  1283               	bcf	status, 6	;RP1=0, select bank0
  1368  012B  1303               	movwf	(___flmul@a+3)
  1369  012C  00A7               	bsf	status, 5	;RP0=1, select bank1
  1370  012D  1683               	bcf	status, 6	;RP1=0, select bank1
  1371  012E  1303               	movf	(_tension+2)^080h,w	;volatile
  1372  012F  0826               	bcf	status, 5	;RP0=0, select bank0
  1373  0130  1283               	bcf	status, 6	;RP1=0, select bank0
  1374  0131  1303               	movwf	(___flmul@a+2)
  1375  0132  00A6               	bsf	status, 5	;RP0=1, select bank1
  1376  0133  1683               	bcf	status, 6	;RP1=0, select bank1
  1377  0134  1303               	movf	(_tension+1)^080h,w	;volatile
  1378  0135  0825               	bcf	status, 5	;RP0=0, select bank0
  1379  0136  1283               	bcf	status, 6	;RP1=0, select bank0
  1380  0137  1303               	movwf	(___flmul@a+1)
  1381  0138  00A5               	bsf	status, 5	;RP0=1, select bank1
  1382  0139  1683               	bcf	status, 6	;RP1=0, select bank1
  1383  013A  1303               	movf	(_tension)^080h,w	;volatile
  1384  013B  0824               	bcf	status, 5	;RP0=0, select bank0
  1385  013C  1283               	bcf	status, 6	;RP1=0, select bank0
  1386  013D  1303               	movwf	(___flmul@a)
  1387  013E  00A4               
  1388                           	fcall	___flmul
  1389  013F  120A  118A  2465  120A  118A  	bcf	status, 5	;RP0=0, select bank0
  1390  0144  1283               	bcf	status, 6	;RP1=0, select bank0
  1391  0145  1303               	movf	(3+(?___flmul)),w
  1392  0146  0823               	movwf	(___fladd@a+3)
  1393  0147  00C1               	movf	(2+(?___flmul)),w
  1394  0148  0822               	movwf	(___fladd@a+2)
  1395  0149  00C0               	movf	(1+(?___flmul)),w
  1396  014A  0821               	movwf	(___fladd@a+1)
  1397  014B  00BF               	movf	(0+(?___flmul)),w
  1398  014C  0820               	movwf	(___fladd@a)
  1399  014D  00BE               
  1400                           	fcall	___fladd
  1401  014E  120A  118A  21A9  120A  118A  	bcf	status, 5	;RP0=0, select bank0
  1402  0153  1283               	bcf	status, 6	;RP1=0, select bank0
  1403  0154  1303               	movf	(3+(?___fladd)),w
  1404  0155  083D               	bsf	status, 5	;RP0=1, select bank1
  1405  0156  1683               	bcf	status, 6	;RP1=0, select bank1
  1406  0157  1303               	movwf	(_temp+3)^080h	;volatile
  1407  0158  00A3               	bcf	status, 5	;RP0=0, select bank0
  1408  0159  1283               	bcf	status, 6	;RP1=0, select bank0
  1409  015A  1303               	movf	(2+(?___fladd)),w
  1410  015B  083C               	bsf	status, 5	;RP0=1, select bank1
  1411  015C  1683               	bcf	status, 6	;RP1=0, select bank1
  1412  015D  1303               	movwf	(_temp+2)^080h	;volatile
  1413  015E  00A2               	bcf	status, 5	;RP0=0, select bank0
  1414  015F  1283               	bcf	status, 6	;RP1=0, select bank0
  1415  0160  1303               	movf	(1+(?___fladd)),w
  1416  0161  083B               	bsf	status, 5	;RP0=1, select bank1
  1417  0162  1683               	bcf	status, 6	;RP1=0, select bank1
  1418  0163  1303               	movwf	(_temp+1)^080h	;volatile
  1419  0164  00A1               	bcf	status, 5	;RP0=0, select bank0
  1420  0165  1283               	bcf	status, 6	;RP1=0, select bank0
  1421  0166  1303               	movf	(0+(?___fladd)),w
  1422  0167  083A               	bsf	status, 5	;RP0=1, select bank1
  1423  0168  1683               	bcf	status, 6	;RP1=0, select bank1
  1424  0169  1303               	movwf	(_temp)^080h	;volatile
  1425  016A  00A0               
  1426                           	line	45
  1427                           	
  1428                           l1989:	
  1429  016B                     ;heat.c: 45:     light(temp_cible);
  1430                           	movf	(_temp_cible+3)^080h,w	;volatile
  1431  016B  082B               	bcf	status, 5	;RP0=0, select bank0
  1432  016C  1283               	bcf	status, 6	;RP1=0, select bank0
  1433  016D  1303               	movwf	(light@temp+3)
  1434  016E  00A3               	bsf	status, 5	;RP0=1, select bank1
  1435  016F  1683               	bcf	status, 6	;RP1=0, select bank1
  1436  0170  1303               	movf	(_temp_cible+2)^080h,w	;volatile
  1437  0171  082A               	bcf	status, 5	;RP0=0, select bank0
  1438  0172  1283               	bcf	status, 6	;RP1=0, select bank0
  1439  0173  1303               	movwf	(light@temp+2)
  1440  0174  00A2               	bsf	status, 5	;RP0=1, select bank1
  1441  0175  1683               	bcf	status, 6	;RP1=0, select bank1
  1442  0176  1303               	movf	(_temp_cible+1)^080h,w	;volatile
  1443  0177  0829               	bcf	status, 5	;RP0=0, select bank0
  1444  0178  1283               	bcf	status, 6	;RP1=0, select bank0
  1445  0179  1303               	movwf	(light@temp+1)
  1446  017A  00A1               	bsf	status, 5	;RP0=1, select bank1
  1447  017B  1683               	bcf	status, 6	;RP1=0, select bank1
  1448  017C  1303               	movf	(_temp_cible)^080h,w	;volatile
  1449  017D  0828               	bcf	status, 5	;RP0=0, select bank0
  1450  017E  1283               	bcf	status, 6	;RP1=0, select bank0
  1451  017F  1303               	movwf	(light@temp)
  1452  0180  00A0               
  1453                           	fcall	_light
  1454  0181  120A  158A  21C2  120A  118A  	line	46
  1455                           ;heat.c: 46:     change_heat();
  1456                           	fcall	_change_heat
  1457  0186  120A  158A  23F7  120A  118A  	line	47
  1458                           ;heat.c: 47:     check_heat(temp);
  1459                           	bsf	status, 5	;RP0=1, select bank1
  1460  018B  1683               	bcf	status, 6	;RP1=0, select bank1
  1461  018C  1303               	movf	(_temp+3)^080h,w	;volatile
  1462  018D  0823               	bcf	status, 5	;RP0=0, select bank0
  1463  018E  1283               	bcf	status, 6	;RP1=0, select bank0
  1464  018F  1303               	movwf	(check_heat@temp+3)
  1465  0190  00E5               	bsf	status, 5	;RP0=1, select bank1
  1466  0191  1683               	bcf	status, 6	;RP1=0, select bank1
  1467  0192  1303               	movf	(_temp+2)^080h,w	;volatile
  1468  0193  0822               	bcf	status, 5	;RP0=0, select bank0
  1469  0194  1283               	bcf	status, 6	;RP1=0, select bank0
  1470  0195  1303               	movwf	(check_heat@temp+2)
  1471  0196  00E4               	bsf	status, 5	;RP0=1, select bank1
  1472  0197  1683               	bcf	status, 6	;RP1=0, select bank1
  1473  0198  1303               	movf	(_temp+1)^080h,w	;volatile
  1474  0199  0821               	bcf	status, 5	;RP0=0, select bank0
  1475  019A  1283               	bcf	status, 6	;RP1=0, select bank0
  1476  019B  1303               	movwf	(check_heat@temp+1)
  1477  019C  00E3               	bsf	status, 5	;RP0=1, select bank1
  1478  019D  1683               	bcf	status, 6	;RP1=0, select bank1
  1479  019E  1303               	movf	(_temp)^080h,w	;volatile
  1480  019F  0820               	bcf	status, 5	;RP0=0, select bank0
  1481  01A0  1283               	bcf	status, 6	;RP1=0, select bank0
  1482  01A1  1303               	movwf	(check_heat@temp)
  1483  01A2  00E2               
  1484                           	fcall	_check_heat
  1485  01A3  120A  158A  24DC  120A  118A  	line	50
  1486                           	
  1487                           l82:	
  1488  01A8                     	return
  1489  01A8  0008               	opt stack 0
  1490                           GLOBAL	__end_of_watch_heat
  1491                           	__end_of_watch_heat:
  1492  01A9                     	signat	_watch_heat,89
  1493                           	global	_light
  1494                           
  1495 ;; *************** function _light *****************
  1496 ;; Defined at:
  1497 ;;		line 52 in file "heat.c"
  1498 ;; Parameters:    Size  Location     Type
  1499 ;;  temp            4    0[BANK0 ] float 
  1500 ;; Auto vars:     Size  Location     Type
  1501 ;;		None
  1502 ;; Return value:  Size  Location     Type
  1503 ;;                  1    wreg      void 
  1504 ;; Registers used:
  1505 ;;		wreg, status,2, status,0, pclath, cstack
  1506 ;; Tracked objects:
  1507 ;;		On entry : 0/0
  1508 ;;		On exit  : 0/0
  1509 ;;		Unchanged: 0/0
  1510 ;; Data sizes:     COMMON   BANK0   BANK1   BANK3   BANK2
  1511 ;;      Params:         0       4       0       0       0
  1512 ;;      Locals:         0       0       0       0       0
  1513 ;;      Temps:          0       0       0       0       0
  1514 ;;      Totals:         0       4       0       0       0
  1515 ;;Total ram usage:        4 bytes
  1516 ;; Hardware stack levels used:    1
  1517 ;; Hardware stack levels required when called:    1
  1518 ;; This function calls:
  1519 ;;		___fleq
  1520 ;; This function is called by:
  1521 ;;		_watch_heat
  1522 ;; This function uses a non-reentrant model
  1523 ;;
  1524                           psect	text2,local,class=CODE,delta=2,merge=1,group=0
  1525                           	line	52
  1526                           global __ptext2
  1527                           __ptext2:	;psect for function _light
  1528  09C2                     psect	text2
  1529                           	file	"heat.c"
  1530                           	line	52
  1531                           	global	__size_of_light
  1532                           	__size_of_light	equ	__end_of_light-_light
  1533  00B0                     	
  1534                           _light:	
  1535  09C2                     ;incstack = 0
  1536                           	opt	stack 5
  1537                           ; Regs used in _light: [wreg+status,2+status,0+pclath+cstack]
  1538                           	line	53
  1539                           	
  1540                           l1631:	
  1541  09C2                     ;heat.c: 53:     if (temp == 22 ) {
  1542                           	bcf	status, 5	;RP0=0, select bank0
  1543  09C2  1283               	bcf	status, 6	;RP1=0, select bank0
  1544  09C3  1303               	movf	(light@temp+3),w
  1545  09C4  0823               	movwf	(___fleq@ff1+3)
  1546  09C5  00F3               	movf	(light@temp+2),w
  1547  09C6  0822               	movwf	(___fleq@ff1+2)
  1548  09C7  00F2               	movf	(light@temp+1),w
  1549  09C8  0821               	movwf	(___fleq@ff1+1)
  1550  09C9  00F1               	movf	(light@temp),w
  1551  09CA  0820               	movwf	(___fleq@ff1)
  1552  09CB  00F0               
  1553                           	movlw	0x41
  1554  09CC  3041               	movwf	(___fleq@ff2+3)
  1555  09CD  00F7               	movlw	0xb0
  1556  09CE  30B0               	movwf	(___fleq@ff2+2)
  1557  09CF  00F6               	movlw	0x0
  1558  09D0  3000               	movwf	(___fleq@ff2+1)
  1559  09D1  00F5               	movlw	0x0
  1560  09D2  3000               	movwf	(___fleq@ff2)
  1561  09D3  00F4               
  1562                           	fcall	___fleq
  1563  09D4  120A  118A  2027  120A  158A  	btfss	status,0
  1564  09D9  1C03               	goto	u2241
  1565  09DA  29DC               	goto	u2240
  1566  09DB  29DD               u2241:
  1567  09DC                     	goto	l1635
  1568  09DC  29E5               u2240:
  1569  09DD                     	line	54
  1570                           	
  1571                           l1633:	
  1572  09DD                     ;heat.c: 54:         RC4 = 0;
  1573                           	bcf	status, 5	;RP0=0, select bank0
  1574  09DD  1283               	bcf	status, 6	;RP1=0, select bank0
  1575  09DE  1303               	bcf	(60/8),(60)&7	;volatile
  1576  09DF  1207               	line	55
  1577                           ;heat.c: 55:         RC5 = 0;
  1578                           	bcf	(61/8),(61)&7	;volatile
  1579  09E0  1287               	line	56
  1580                           ;heat.c: 56:         RC6 = 0;
  1581                           	bcf	(62/8),(62)&7	;volatile
  1582  09E1  1307               	line	57
  1583                           ;heat.c: 57:         RC7 = 0;
  1584                           	bcf	(63/8),(63)&7	;volatile
  1585  09E2  1387               	line	59
  1586                           ;heat.c: 59:         RC3 = 1;
  1587                           	bsf	(59/8),(59)&7	;volatile
  1588  09E3  1587               	goto	l1635
  1589  09E4  29E5               	line	60
  1590                           ;heat.c: 60:     }
  1591                           	
  1592                           l85:	
  1593  09E5                     	line	61
  1594                           	
  1595                           l1635:	
  1596  09E5                     ;heat.c: 61:     if (temp == 26) {
  1597                           	bcf	status, 5	;RP0=0, select bank0
  1598  09E5  1283               	bcf	status, 6	;RP1=0, select bank0
  1599  09E6  1303               	movf	(light@temp+3),w
  1600  09E7  0823               	movwf	(___fleq@ff1+3)
  1601  09E8  00F3               	movf	(light@temp+2),w
  1602  09E9  0822               	movwf	(___fleq@ff1+2)
  1603  09EA  00F2               	movf	(light@temp+1),w
  1604  09EB  0821               	movwf	(___fleq@ff1+1)
  1605  09EC  00F1               	movf	(light@temp),w
  1606  09ED  0820               	movwf	(___fleq@ff1)
  1607  09EE  00F0               
  1608                           	movlw	0x41
  1609  09EF  3041               	movwf	(___fleq@ff2+3)
  1610  09F0  00F7               	movlw	0xd0
  1611  09F1  30D0               	movwf	(___fleq@ff2+2)
  1612  09F2  00F6               	movlw	0x0
  1613  09F3  3000               	movwf	(___fleq@ff2+1)
  1614  09F4  00F5               	movlw	0x0
  1615  09F5  3000               	movwf	(___fleq@ff2)
  1616  09F6  00F4               
  1617                           	fcall	___fleq
  1618  09F7  120A  118A  2027  120A  158A  	btfss	status,0
  1619  09FC  1C03               	goto	u2251
  1620  09FD  29FF               	goto	u2250
  1621  09FE  2A00               u2251:
  1622  09FF                     	goto	l1639
  1623  09FF  2A08               u2250:
  1624  0A00                     	line	62
  1625                           	
  1626                           l1637:	
  1627  0A00                     ;heat.c: 62:         RC3 = 0;
  1628                           	bcf	status, 5	;RP0=0, select bank0
  1629  0A00  1283               	bcf	status, 6	;RP1=0, select bank0
  1630  0A01  1303               	bcf	(59/8),(59)&7	;volatile
  1631  0A02  1187               	line	63
  1632                           ;heat.c: 63:         RC5 = 0;
  1633                           	bcf	(61/8),(61)&7	;volatile
  1634  0A03  1287               	line	64
  1635                           ;heat.c: 64:         RC6 = 0;
  1636                           	bcf	(62/8),(62)&7	;volatile
  1637  0A04  1307               	line	65
  1638                           ;heat.c: 65:         RC7 = 0;
  1639                           	bcf	(63/8),(63)&7	;volatile
  1640  0A05  1387               	line	67
  1641                           ;heat.c: 67:         RC4 = 1;
  1642                           	bsf	(60/8),(60)&7	;volatile
  1643  0A06  1607               	goto	l1639
  1644  0A07  2A08               	line	68
  1645                           ;heat.c: 68:     }
  1646                           	
  1647                           l86:	
  1648  0A08                     	line	69
  1649                           	
  1650                           l1639:	
  1651  0A08                     ;heat.c: 69:     if (temp == 30 ) {
  1652                           	bcf	status, 5	;RP0=0, select bank0
  1653  0A08  1283               	bcf	status, 6	;RP1=0, select bank0
  1654  0A09  1303               	movf	(light@temp+3),w
  1655  0A0A  0823               	movwf	(___fleq@ff1+3)
  1656  0A0B  00F3               	movf	(light@temp+2),w
  1657  0A0C  0822               	movwf	(___fleq@ff1+2)
  1658  0A0D  00F2               	movf	(light@temp+1),w
  1659  0A0E  0821               	movwf	(___fleq@ff1+1)
  1660  0A0F  00F1               	movf	(light@temp),w
  1661  0A10  0820               	movwf	(___fleq@ff1)
  1662  0A11  00F0               
  1663                           	movlw	0x41
  1664  0A12  3041               	movwf	(___fleq@ff2+3)
  1665  0A13  00F7               	movlw	0xf0
  1666  0A14  30F0               	movwf	(___fleq@ff2+2)
  1667  0A15  00F6               	movlw	0x0
  1668  0A16  3000               	movwf	(___fleq@ff2+1)
  1669  0A17  00F5               	movlw	0x0
  1670  0A18  3000               	movwf	(___fleq@ff2)
  1671  0A19  00F4               
  1672                           	fcall	___fleq
  1673  0A1A  120A  118A  2027  120A  158A  	btfss	status,0
  1674  0A1F  1C03               	goto	u2261
  1675  0A20  2A22               	goto	u2260
  1676  0A21  2A23               u2261:
  1677  0A22                     	goto	l1643
  1678  0A22  2A2B               u2260:
  1679  0A23                     	line	70
  1680                           	
  1681                           l1641:	
  1682  0A23                     ;heat.c: 70:         RC3 = 0;
  1683                           	bcf	status, 5	;RP0=0, select bank0
  1684  0A23  1283               	bcf	status, 6	;RP1=0, select bank0
  1685  0A24  1303               	bcf	(59/8),(59)&7	;volatile
  1686  0A25  1187               	line	71
  1687                           ;heat.c: 71:         RC4 = 0;
  1688                           	bcf	(60/8),(60)&7	;volatile
  1689  0A26  1207               	line	72
  1690                           ;heat.c: 72:         RC6 = 0;
  1691                           	bcf	(62/8),(62)&7	;volatile
  1692  0A27  1307               	line	73
  1693                           ;heat.c: 73:         RC7 = 0;
  1694                           	bcf	(63/8),(63)&7	;volatile
  1695  0A28  1387               	line	75
  1696                           ;heat.c: 75:         RC5 = 1;
  1697                           	bsf	(61/8),(61)&7	;volatile
  1698  0A29  1687               	goto	l1643
  1699  0A2A  2A2B               	line	76
  1700                           ;heat.c: 76:     }
  1701                           	
  1702                           l87:	
  1703  0A2B                     	line	77
  1704                           	
  1705                           l1643:	
  1706  0A2B                     ;heat.c: 77:     if (temp == 34) {
  1707                           	bcf	status, 5	;RP0=0, select bank0
  1708  0A2B  1283               	bcf	status, 6	;RP1=0, select bank0
  1709  0A2C  1303               	movf	(light@temp+3),w
  1710  0A2D  0823               	movwf	(___fleq@ff1+3)
  1711  0A2E  00F3               	movf	(light@temp+2),w
  1712  0A2F  0822               	movwf	(___fleq@ff1+2)
  1713  0A30  00F2               	movf	(light@temp+1),w
  1714  0A31  0821               	movwf	(___fleq@ff1+1)
  1715  0A32  00F1               	movf	(light@temp),w
  1716  0A33  0820               	movwf	(___fleq@ff1)
  1717  0A34  00F0               
  1718                           	movlw	0x42
  1719  0A35  3042               	movwf	(___fleq@ff2+3)
  1720  0A36  00F7               	movlw	0x8
  1721  0A37  3008               	movwf	(___fleq@ff2+2)
  1722  0A38  00F6               	movlw	0x0
  1723  0A39  3000               	movwf	(___fleq@ff2+1)
  1724  0A3A  00F5               	movlw	0x0
  1725  0A3B  3000               	movwf	(___fleq@ff2)
  1726  0A3C  00F4               
  1727                           	fcall	___fleq
  1728  0A3D  120A  118A  2027  120A  158A  	btfss	status,0
  1729  0A42  1C03               	goto	u2271
  1730  0A43  2A45               	goto	u2270
  1731  0A44  2A46               u2271:
  1732  0A45                     	goto	l1647
  1733  0A45  2A4E               u2270:
  1734  0A46                     	line	78
  1735                           	
  1736                           l1645:	
  1737  0A46                     ;heat.c: 78:         RC3 = 0;
  1738                           	bcf	status, 5	;RP0=0, select bank0
  1739  0A46  1283               	bcf	status, 6	;RP1=0, select bank0
  1740  0A47  1303               	bcf	(59/8),(59)&7	;volatile
  1741  0A48  1187               	line	79
  1742                           ;heat.c: 79:         RC4 = 0;
  1743                           	bcf	(60/8),(60)&7	;volatile
  1744  0A49  1207               	line	80
  1745                           ;heat.c: 80:         RC5 = 0;
  1746                           	bcf	(61/8),(61)&7	;volatile
  1747  0A4A  1287               	line	81
  1748                           ;heat.c: 81:         RC7 = 0;
  1749                           	bcf	(63/8),(63)&7	;volatile
  1750  0A4B  1387               	line	83
  1751                           ;heat.c: 83:         RC6 = 1;
  1752                           	bsf	(62/8),(62)&7	;volatile
  1753  0A4C  1707               	goto	l1647
  1754  0A4D  2A4E               	line	84
  1755                           ;heat.c: 84:     }
  1756                           	
  1757                           l88:	
  1758  0A4E                     	line	85
  1759                           	
  1760                           l1647:	
  1761  0A4E                     ;heat.c: 85:     if (temp == 38) {
  1762                           	bcf	status, 5	;RP0=0, select bank0
  1763  0A4E  1283               	bcf	status, 6	;RP1=0, select bank0
  1764  0A4F  1303               	movf	(light@temp+3),w
  1765  0A50  0823               	movwf	(___fleq@ff1+3)
  1766  0A51  00F3               	movf	(light@temp+2),w
  1767  0A52  0822               	movwf	(___fleq@ff1+2)
  1768  0A53  00F2               	movf	(light@temp+1),w
  1769  0A54  0821               	movwf	(___fleq@ff1+1)
  1770  0A55  00F1               	movf	(light@temp),w
  1771  0A56  0820               	movwf	(___fleq@ff1)
  1772  0A57  00F0               
  1773                           	movlw	0x42
  1774  0A58  3042               	movwf	(___fleq@ff2+3)
  1775  0A59  00F7               	movlw	0x18
  1776  0A5A  3018               	movwf	(___fleq@ff2+2)
  1777  0A5B  00F6               	movlw	0x0
  1778  0A5C  3000               	movwf	(___fleq@ff2+1)
  1779  0A5D  00F5               	movlw	0x0
  1780  0A5E  3000               	movwf	(___fleq@ff2)
  1781  0A5F  00F4               
  1782                           	fcall	___fleq
  1783  0A60  120A  118A  2027  120A  158A  	btfss	status,0
  1784  0A65  1C03               	goto	u2281
  1785  0A66  2A68               	goto	u2280
  1786  0A67  2A69               u2281:
  1787  0A68                     	goto	l90
  1788  0A68  2A71               u2280:
  1789  0A69                     	line	86
  1790                           	
  1791                           l1649:	
  1792  0A69                     ;heat.c: 86:         RC3 = 0;
  1793                           	bcf	status, 5	;RP0=0, select bank0
  1794  0A69  1283               	bcf	status, 6	;RP1=0, select bank0
  1795  0A6A  1303               	bcf	(59/8),(59)&7	;volatile
  1796  0A6B  1187               	line	87
  1797                           ;heat.c: 87:         RC4 = 0;
  1798                           	bcf	(60/8),(60)&7	;volatile
  1799  0A6C  1207               	line	88
  1800                           ;heat.c: 88:         RC5 = 0;
  1801                           	bcf	(61/8),(61)&7	;volatile
  1802  0A6D  1287               	line	89
  1803                           ;heat.c: 89:         RC6 = 0;
  1804                           	bcf	(62/8),(62)&7	;volatile
  1805  0A6E  1307               	line	91
  1806                           ;heat.c: 91:         RC7 = 1;
  1807                           	bsf	(63/8),(63)&7	;volatile
  1808  0A6F  1787               	goto	l90
  1809  0A70  2A71               	line	92
  1810                           ;heat.c: 92:     }
  1811                           	
  1812                           l89:	
  1813  0A71                     	line	93
  1814                           	
  1815                           l90:	
  1816  0A71                     	return
  1817  0A71  0008               	opt stack 0
  1818                           GLOBAL	__end_of_light
  1819                           	__end_of_light:
  1820  0A72                     	signat	_light,4217
  1821                           	global	___fleq
  1822                           
  1823 ;; *************** function ___fleq *****************
  1824 ;; Defined at:
  1825 ;;		line 4 in file "C:\Program Files (x86)\Microchip\xc8\v2.00\pic\sources\c90\common\fleq.c"
  1826 ;; Parameters:    Size  Location     Type
  1827 ;;  ff1             4    0[COMMON] void 
  1828 ;;  ff2             4    4[COMMON] void 
  1829 ;; Auto vars:     Size  Location     Type
  1830 ;;		None
  1831 ;; Return value:  Size  Location     Type
  1832 ;;		None               void
  1833 ;; Registers used:
  1834 ;;		wreg, status,2, status,0
  1835 ;; Tracked objects:
  1836 ;;		On entry : 0/0
  1837 ;;		On exit  : 0/0
  1838 ;;		Unchanged: 0/0
  1839 ;; Data sizes:     COMMON   BANK0   BANK1   BANK3   BANK2
  1840 ;;      Params:         8       0       0       0       0
  1841 ;;      Locals:         0       0       0       0       0
  1842 ;;      Temps:          4       0       0       0       0
  1843 ;;      Totals:        12       0       0       0       0
  1844 ;;Total ram usage:       12 bytes
  1845 ;; Hardware stack levels used:    1
  1846 ;; This function calls:
  1847 ;;		Nothing
  1848 ;; This function is called by:
  1849 ;;		_light
  1850 ;; This function uses a non-reentrant model
  1851 ;;
  1852                           psect	text3,local,class=CODE,delta=2,merge=1,group=1
  1853                           	file	"C:\Program Files (x86)\Microchip\xc8\v2.00\pic\sources\c90\common\fleq.c"
  1854                           	line	4
  1855                           global __ptext3
  1856                           __ptext3:	;psect for function ___fleq
  1857  0027                     psect	text3
  1858                           	file	"C:\Program Files (x86)\Microchip\xc8\v2.00\pic\sources\c90\common\fleq.c"
  1859                           	line	4
  1860                           	global	__size_of___fleq
  1861                           	__size_of___fleq	equ	__end_of___fleq-___fleq
  1862  0050                     	
  1863                           ___fleq:	
  1864  0027                     ;incstack = 0
  1865                           	opt	stack 5
  1866                           ; Regs used in ___fleq: [wreg+status,2+status,0]
  1867                           	line	7
  1868                           	
  1869                           l1545:	
  1870  0027                     	movlw	0
  1871  0027  3000               	andwf	(___fleq@ff1),w
  1872  0028  0570               	movwf	(??___fleq+0)+0
  1873  0029  00F8               	movlw	0
  1874  002A  3000               	andwf	(___fleq@ff1+1),w
  1875  002B  0571               	movwf	((??___fleq+0)+0+1)
  1876  002C  00F9               	movlw	080h
  1877  002D  3080               	andwf	(___fleq@ff1+2),w
  1878  002E  0572               	movwf	((??___fleq+0)+0+2)
  1879  002F  00FA               	movlw	07Fh
  1880  0030  307F               	andwf	(___fleq@ff1+3),w
  1881  0031  0573               	movwf	((??___fleq+0)+0+3)
  1882  0032  00FB               	movf	3+(??___fleq+0)+0,w
  1883  0033  087B               	iorwf	2+(??___fleq+0)+0,w
  1884  0034  047A               	iorwf	1+(??___fleq+0)+0,w
  1885  0035  0479               	iorwf	0+(??___fleq+0)+0,w
  1886  0036  0478               	skipz
  1887  0037  1D03               	goto	u2031
  1888  0038  283A               	goto	u2030
  1889  0039  283B               u2031:
  1890  003A                     	goto	l345
  1891  003A  2843               u2030:
  1892  003B                     	line	8
  1893                           	
  1894                           l1547:	
  1895  003B                     	movlw	high highword(0)
  1896  003B  3000               	movwf	(___fleq@ff1+3)
  1897  003C  00F3               	movlw	low highword(0)
  1898  003D  3000               	movwf	(___fleq@ff1+2)
  1899  003E  00F2               	movlw	high(0)
  1900  003F  3000               	movwf	(___fleq@ff1+1)
  1901  0040  00F1               	movlw	low(0)
  1902  0041  3000               	movwf	(___fleq@ff1)
  1903  0042  00F0               
  1904                           	
  1905                           l345:	
  1906  0043                     	line	9
  1907                           	movlw	0
  1908  0043  3000               	andwf	(___fleq@ff2),w
  1909  0044  0574               	movwf	(??___fleq+0)+0
  1910  0045  00F8               	movlw	0
  1911  0046  3000               	andwf	(___fleq@ff2+1),w
  1912  0047  0575               	movwf	((??___fleq+0)+0+1)
  1913  0048  00F9               	movlw	080h
  1914  0049  3080               	andwf	(___fleq@ff2+2),w
  1915  004A  0576               	movwf	((??___fleq+0)+0+2)
  1916  004B  00FA               	movlw	07Fh
  1917  004C  307F               	andwf	(___fleq@ff2+3),w
  1918  004D  0577               	movwf	((??___fleq+0)+0+3)
  1919  004E  00FB               	movf	3+(??___fleq+0)+0,w
  1920  004F  087B               	iorwf	2+(??___fleq+0)+0,w
  1921  0050  047A               	iorwf	1+(??___fleq+0)+0,w
  1922  0051  0479               	iorwf	0+(??___fleq+0)+0,w
  1923  0052  0478               	skipz
  1924  0053  1D03               	goto	u2041
  1925  0054  2856               	goto	u2040
  1926  0055  2857               u2041:
  1927  0056                     	goto	l346
  1928  0056  285F               u2040:
  1929  0057                     	line	10
  1930                           	
  1931                           l1549:	
  1932  0057                     	movlw	high highword(0)
  1933  0057  3000               	movwf	(___fleq@ff2+3)
  1934  0058  00F7               	movlw	low highword(0)
  1935  0059  3000               	movwf	(___fleq@ff2+2)
  1936  005A  00F6               	movlw	high(0)
  1937  005B  3000               	movwf	(___fleq@ff2+1)
  1938  005C  00F5               	movlw	low(0)
  1939  005D  3000               	movwf	(___fleq@ff2)
  1940  005E  00F4               
  1941                           	
  1942                           l346:	
  1943  005F                     	line	11
  1944                           	movf	(___fleq@ff2+3),w
  1945  005F  0877               	xorwf	(___fleq@ff1+3),w
  1946  0060  0673               	skipz
  1947  0061  1D03               	goto	u2055
  1948  0062  286D               	movf	(___fleq@ff2+2),w
  1949  0063  0876               	xorwf	(___fleq@ff1+2),w
  1950  0064  0672               	skipz
  1951  0065  1D03               	goto	u2055
  1952  0066  286D               	movf	(___fleq@ff2+1),w
  1953  0067  0875               	xorwf	(___fleq@ff1+1),w
  1954  0068  0671               	skipz
  1955  0069  1D03               	goto	u2055
  1956  006A  286D               	movf	(___fleq@ff2),w
  1957  006B  0874               	xorwf	(___fleq@ff1),w
  1958  006C  0670               u2055:
  1959  006D                     	skipnz
  1960  006D  1903               	goto	u2051
  1961  006E  2870               	goto	u2050
  1962  006F  2871               u2051:
  1963  0070                     	goto	l1553
  1964  0070  2873               u2050:
  1965  0071                     	
  1966                           l1551:	
  1967  0071                     	clrc
  1968  0071  1003               	
  1969                           	goto	l347
  1970  0072  2876               	
  1971                           l1343:	
  1972  0073                     	
  1973                           l1553:	
  1974  0073                     	setc
  1975  0073  1403               	
  1976                           	goto	l347
  1977  0074  2876               	
  1978                           l1345:	
  1979  0075                     	goto	l347
  1980  0075  2876               	
  1981                           l1555:	
  1982  0076                     	line	12
  1983                           	
  1984                           l347:	
  1985  0076                     	return
  1986  0076  0008               	opt stack 0
  1987                           GLOBAL	__end_of___fleq
  1988                           	__end_of___fleq:
  1989  0077                     	signat	___fleq,8312
  1990                           	global	_check_heat
  1991                           
  1992 ;; *************** function _check_heat *****************
  1993 ;; Defined at:
  1994 ;;		line 17 in file "heat.c"
  1995 ;; Parameters:    Size  Location     Type
  1996 ;;  temp            4   66[BANK0 ] float 
  1997 ;; Auto vars:     Size  Location     Type
  1998 ;;		None
  1999 ;; Return value:  Size  Location     Type
  2000 ;;                  1    wreg      void 
  2001 ;; Registers used:
  2002 ;;		wreg, status,2, status,0, btemp+1, pclath, cstack
  2003 ;; Tracked objects:
  2004 ;;		On entry : 0/0
  2005 ;;		On exit  : 0/0
  2006 ;;		Unchanged: 0/0
  2007 ;; Data sizes:     COMMON   BANK0   BANK1   BANK3   BANK2
  2008 ;;      Params:         0       4       0       0       0
  2009 ;;      Locals:         0       0       0       0       0
  2010 ;;      Temps:          0       0       0       0       0
  2011 ;;      Totals:         0       4       0       0       0
  2012 ;;Total ram usage:        4 bytes
  2013 ;; Hardware stack levels used:    1
  2014 ;; Hardware stack levels required when called:    1
  2015 ;; This function calls:
  2016 ;;		___fladd
  2017 ;;		___flge
  2018 ;; This function is called by:
  2019 ;;		_watch_heat
  2020 ;; This function uses a non-reentrant model
  2021 ;;
  2022                           psect	text4,local,class=CODE,delta=2,merge=1,group=0
  2023                           	file	"heat.c"
  2024                           	line	17
  2025                           global __ptext4
  2026                           __ptext4:	;psect for function _check_heat
  2027  0CDC                     psect	text4
  2028                           	file	"heat.c"
  2029                           	line	17
  2030                           	global	__size_of_check_heat
  2031                           	__size_of_check_heat	equ	__end_of_check_heat-_check_heat
  2032  011B                     	
  2033                           _check_heat:	
  2034  0CDC                     ;incstack = 0
  2035                           	opt	stack 5
  2036                           ; Regs used in _check_heat: [wreg+status,2+status,0+btemp+1+pclath+cstack]
  2037                           	line	18
  2038                           	
  2039                           l1617:	
  2040  0CDC                     ;heat.c: 18:     TRISD = 0b00000000;
  2041                           	bsf	status, 5	;RP0=1, select bank1
  2042  0CDC  1683               	bcf	status, 6	;RP1=0, select bank1
  2043  0CDD  1303               	clrf	(136)^080h	;volatile
  2044  0CDE  0188               	line	19
  2045                           	
  2046                           l1619:	
  2047  0CDF                     ;heat.c: 19:     if(temp > temp_cible +1 ){
  2048                           	movlw	0x3f
  2049  0CDF  303F               	bcf	status, 5	;RP0=0, select bank0
  2050  0CE0  1283               	bcf	status, 6	;RP1=0, select bank0
  2051  0CE1  1303               	movwf	(___fladd@b+3)
  2052  0CE2  00BD               	movlw	0x80
  2053  0CE3  3080               	movwf	(___fladd@b+2)
  2054  0CE4  00BC               	movlw	0x0
  2055  0CE5  3000               	movwf	(___fladd@b+1)
  2056  0CE6  00BB               	movlw	0x0
  2057  0CE7  3000               	movwf	(___fladd@b)
  2058  0CE8  00BA               
  2059                           	bsf	status, 5	;RP0=1, select bank1
  2060  0CE9  1683               	bcf	status, 6	;RP1=0, select bank1
  2061  0CEA  1303               	movf	(_temp_cible+3)^080h,w	;volatile
  2062  0CEB  082B               	bcf	status, 5	;RP0=0, select bank0
  2063  0CEC  1283               	bcf	status, 6	;RP1=0, select bank0
  2064  0CED  1303               	movwf	(___fladd@a+3)
  2065  0CEE  00C1               	bsf	status, 5	;RP0=1, select bank1
  2066  0CEF  1683               	bcf	status, 6	;RP1=0, select bank1
  2067  0CF0  1303               	movf	(_temp_cible+2)^080h,w	;volatile
  2068  0CF1  082A               	bcf	status, 5	;RP0=0, select bank0
  2069  0CF2  1283               	bcf	status, 6	;RP1=0, select bank0
  2070  0CF3  1303               	movwf	(___fladd@a+2)
  2071  0CF4  00C0               	bsf	status, 5	;RP0=1, select bank1
  2072  0CF5  1683               	bcf	status, 6	;RP1=0, select bank1
  2073  0CF6  1303               	movf	(_temp_cible+1)^080h,w	;volatile
  2074  0CF7  0829               	bcf	status, 5	;RP0=0, select bank0
  2075  0CF8  1283               	bcf	status, 6	;RP1=0, select bank0
  2076  0CF9  1303               	movwf	(___fladd@a+1)
  2077  0CFA  00BF               	bsf	status, 5	;RP0=1, select bank1
  2078  0CFB  1683               	bcf	status, 6	;RP1=0, select bank1
  2079  0CFC  1303               	movf	(_temp_cible)^080h,w	;volatile
  2080  0CFD  0828               	bcf	status, 5	;RP0=0, select bank0
  2081  0CFE  1283               	bcf	status, 6	;RP1=0, select bank0
  2082  0CFF  1303               	movwf	(___fladd@a)
  2083  0D00  00BE               
  2084                           	fcall	___fladd
  2085  0D01  120A  118A  21A9  120A  158A  	bcf	status, 5	;RP0=0, select bank0
  2086  0D06  1283               	bcf	status, 6	;RP1=0, select bank0
  2087  0D07  1303               	movf	(3+(?___fladd)),w
  2088  0D08  083D               	movwf	(___flge@ff1+3)
  2089  0D09  00D5               	movf	(2+(?___fladd)),w
  2090  0D0A  083C               	movwf	(___flge@ff1+2)
  2091  0D0B  00D4               	movf	(1+(?___fladd)),w
  2092  0D0C  083B               	movwf	(___flge@ff1+1)
  2093  0D0D  00D3               	movf	(0+(?___fladd)),w
  2094  0D0E  083A               	movwf	(___flge@ff1)
  2095  0D0F  00D2               
  2096                           	movf	(check_heat@temp+3),w
  2097  0D10  0865               	movwf	(___flge@ff2+3)
  2098  0D11  00D9               	movf	(check_heat@temp+2),w
  2099  0D12  0864               	movwf	(___flge@ff2+2)
  2100  0D13  00D8               	movf	(check_heat@temp+1),w
  2101  0D14  0863               	movwf	(___flge@ff2+1)
  2102  0D15  00D7               	movf	(check_heat@temp),w
  2103  0D16  0862               	movwf	(___flge@ff2)
  2104  0D17  00D6               
  2105                           	fcall	___flge
  2106  0D18  120A  158A  2334  120A  158A  	btfsc	status,0
  2107  0D1D  1803               	goto	u2201
  2108  0D1E  2D20               	goto	u2200
  2109  0D1F  2D21               u2201:
  2110  0D20                     	goto	l1623
  2111  0D20  2D26               u2200:
  2112  0D21                     	line	20
  2113                           	
  2114                           l1621:	
  2115  0D21                     ;heat.c: 20:         RD0 = 1;
  2116                           	bcf	status, 5	;RP0=0, select bank0
  2117  0D21  1283               	bcf	status, 6	;RP1=0, select bank0
  2118  0D22  1303               	bsf	(64/8),(64)&7	;volatile
  2119  0D23  1408               	line	21
  2120                           ;heat.c: 21:         RD1 = 0;
  2121                           	bcf	(65/8),(65)&7	;volatile
  2122  0D24  1088               	goto	l1623
  2123  0D25  2D26               	line	22
  2124                           ;heat.c: 22:     }
  2125                           	
  2126                           l71:	
  2127  0D26                     	line	23
  2128                           	
  2129                           l1623:	
  2130  0D26                     ;heat.c: 23:     if(temp <= temp_cible +0.3 || temp <= temp_cible +0.3){
  2131                           	movlw	0x3e
  2132  0D26  303E               	bcf	status, 5	;RP0=0, select bank0
  2133  0D27  1283               	bcf	status, 6	;RP1=0, select bank0
  2134  0D28  1303               	movwf	(___fladd@b+3)
  2135  0D29  00BD               	movlw	0x99
  2136  0D2A  3099               	movwf	(___fladd@b+2)
  2137  0D2B  00BC               	movlw	0x99
  2138  0D2C  3099               	movwf	(___fladd@b+1)
  2139  0D2D  00BB               	movlw	0x9a
  2140  0D2E  309A               	movwf	(___fladd@b)
  2141  0D2F  00BA               
  2142                           	bsf	status, 5	;RP0=1, select bank1
  2143  0D30  1683               	bcf	status, 6	;RP1=0, select bank1
  2144  0D31  1303               	movf	(_temp_cible+3)^080h,w	;volatile
  2145  0D32  082B               	bcf	status, 5	;RP0=0, select bank0
  2146  0D33  1283               	bcf	status, 6	;RP1=0, select bank0
  2147  0D34  1303               	movwf	(___fladd@a+3)
  2148  0D35  00C1               	bsf	status, 5	;RP0=1, select bank1
  2149  0D36  1683               	bcf	status, 6	;RP1=0, select bank1
  2150  0D37  1303               	movf	(_temp_cible+2)^080h,w	;volatile
  2151  0D38  082A               	bcf	status, 5	;RP0=0, select bank0
  2152  0D39  1283               	bcf	status, 6	;RP1=0, select bank0
  2153  0D3A  1303               	movwf	(___fladd@a+2)
  2154  0D3B  00C0               	bsf	status, 5	;RP0=1, select bank1
  2155  0D3C  1683               	bcf	status, 6	;RP1=0, select bank1
  2156  0D3D  1303               	movf	(_temp_cible+1)^080h,w	;volatile
  2157  0D3E  0829               	bcf	status, 5	;RP0=0, select bank0
  2158  0D3F  1283               	bcf	status, 6	;RP1=0, select bank0
  2159  0D40  1303               	movwf	(___fladd@a+1)
  2160  0D41  00BF               	bsf	status, 5	;RP0=1, select bank1
  2161  0D42  1683               	bcf	status, 6	;RP1=0, select bank1
  2162  0D43  1303               	movf	(_temp_cible)^080h,w	;volatile
  2163  0D44  0828               	bcf	status, 5	;RP0=0, select bank0
  2164  0D45  1283               	bcf	status, 6	;RP1=0, select bank0
  2165  0D46  1303               	movwf	(___fladd@a)
  2166  0D47  00BE               
  2167                           	fcall	___fladd
  2168  0D48  120A  118A  21A9  120A  158A  	bcf	status, 5	;RP0=0, select bank0
  2169  0D4D  1283               	bcf	status, 6	;RP1=0, select bank0
  2170  0D4E  1303               	movf	(3+(?___fladd)),w
  2171  0D4F  083D               	movwf	(___flge@ff1+3)
  2172  0D50  00D5               	movf	(2+(?___fladd)),w
  2173  0D51  083C               	movwf	(___flge@ff1+2)
  2174  0D52  00D4               	movf	(1+(?___fladd)),w
  2175  0D53  083B               	movwf	(___flge@ff1+1)
  2176  0D54  00D3               	movf	(0+(?___fladd)),w
  2177  0D55  083A               	movwf	(___flge@ff1)
  2178  0D56  00D2               
  2179                           	movf	(check_heat@temp+3),w
  2180  0D57  0865               	movwf	(___flge@ff2+3)
  2181  0D58  00D9               	movf	(check_heat@temp+2),w
  2182  0D59  0864               	movwf	(___flge@ff2+2)
  2183  0D5A  00D8               	movf	(check_heat@temp+1),w
  2184  0D5B  0863               	movwf	(___flge@ff2+1)
  2185  0D5C  00D7               	movf	(check_heat@temp),w
  2186  0D5D  0862               	movwf	(___flge@ff2)
  2187  0D5E  00D6               
  2188                           	fcall	___flge
  2189  0D5F  120A  158A  2334  120A  158A  	btfsc	status,0
  2190  0D64  1803               	goto	u2211
  2191  0D65  2D67               	goto	u2210
  2192  0D66  2D68               u2211:
  2193  0D67                     	goto	l74
  2194  0D67  2DAA               u2210:
  2195  0D68                     	
  2196                           l1625:	
  2197  0D68                     	movlw	0x3e
  2198  0D68  303E               	bcf	status, 5	;RP0=0, select bank0
  2199  0D69  1283               	bcf	status, 6	;RP1=0, select bank0
  2200  0D6A  1303               	movwf	(___fladd@b+3)
  2201  0D6B  00BD               	movlw	0x99
  2202  0D6C  3099               	movwf	(___fladd@b+2)
  2203  0D6D  00BC               	movlw	0x99
  2204  0D6E  3099               	movwf	(___fladd@b+1)
  2205  0D6F  00BB               	movlw	0x9a
  2206  0D70  309A               	movwf	(___fladd@b)
  2207  0D71  00BA               
  2208                           	bsf	status, 5	;RP0=1, select bank1
  2209  0D72  1683               	bcf	status, 6	;RP1=0, select bank1
  2210  0D73  1303               	movf	(_temp_cible+3)^080h,w	;volatile
  2211  0D74  082B               	bcf	status, 5	;RP0=0, select bank0
  2212  0D75  1283               	bcf	status, 6	;RP1=0, select bank0
  2213  0D76  1303               	movwf	(___fladd@a+3)
  2214  0D77  00C1               	bsf	status, 5	;RP0=1, select bank1
  2215  0D78  1683               	bcf	status, 6	;RP1=0, select bank1
  2216  0D79  1303               	movf	(_temp_cible+2)^080h,w	;volatile
  2217  0D7A  082A               	bcf	status, 5	;RP0=0, select bank0
  2218  0D7B  1283               	bcf	status, 6	;RP1=0, select bank0
  2219  0D7C  1303               	movwf	(___fladd@a+2)
  2220  0D7D  00C0               	bsf	status, 5	;RP0=1, select bank1
  2221  0D7E  1683               	bcf	status, 6	;RP1=0, select bank1
  2222  0D7F  1303               	movf	(_temp_cible+1)^080h,w	;volatile
  2223  0D80  0829               	bcf	status, 5	;RP0=0, select bank0
  2224  0D81  1283               	bcf	status, 6	;RP1=0, select bank0
  2225  0D82  1303               	movwf	(___fladd@a+1)
  2226  0D83  00BF               	bsf	status, 5	;RP0=1, select bank1
  2227  0D84  1683               	bcf	status, 6	;RP1=0, select bank1
  2228  0D85  1303               	movf	(_temp_cible)^080h,w	;volatile
  2229  0D86  0828               	bcf	status, 5	;RP0=0, select bank0
  2230  0D87  1283               	bcf	status, 6	;RP1=0, select bank0
  2231  0D88  1303               	movwf	(___fladd@a)
  2232  0D89  00BE               
  2233                           	fcall	___fladd
  2234  0D8A  120A  118A  21A9  120A  158A  	bcf	status, 5	;RP0=0, select bank0
  2235  0D8F  1283               	bcf	status, 6	;RP1=0, select bank0
  2236  0D90  1303               	movf	(3+(?___fladd)),w
  2237  0D91  083D               	movwf	(___flge@ff1+3)
  2238  0D92  00D5               	movf	(2+(?___fladd)),w
  2239  0D93  083C               	movwf	(___flge@ff1+2)
  2240  0D94  00D4               	movf	(1+(?___fladd)),w
  2241  0D95  083B               	movwf	(___flge@ff1+1)
  2242  0D96  00D3               	movf	(0+(?___fladd)),w
  2243  0D97  083A               	movwf	(___flge@ff1)
  2244  0D98  00D2               
  2245                           	movf	(check_heat@temp+3),w
  2246  0D99  0865               	movwf	(___flge@ff2+3)
  2247  0D9A  00D9               	movf	(check_heat@temp+2),w
  2248  0D9B  0864               	movwf	(___flge@ff2+2)
  2249  0D9C  00D8               	movf	(check_heat@temp+1),w
  2250  0D9D  0863               	movwf	(___flge@ff2+1)
  2251  0D9E  00D7               	movf	(check_heat@temp),w
  2252  0D9F  0862               	movwf	(___flge@ff2)
  2253  0DA0  00D6               
  2254                           	fcall	___flge
  2255  0DA1  120A  158A  2334  120A  158A  	btfss	status,0
  2256  0DA6  1C03               	goto	u2221
  2257  0DA7  2DA9               	goto	u2220
  2258  0DA8  2DAA               u2221:
  2259  0DA9                     	goto	l1627
  2260  0DA9  2DAF               u2220:
  2261  0DAA                     	
  2262                           l74:	
  2263  0DAA                     	line	24
  2264                           ;heat.c: 24:         RD0 = 0;
  2265                           	bcf	status, 5	;RP0=0, select bank0
  2266  0DAA  1283               	bcf	status, 6	;RP1=0, select bank0
  2267  0DAB  1303               	bcf	(64/8),(64)&7	;volatile
  2268  0DAC  1008               	line	25
  2269                           ;heat.c: 25:         RD1 = 0;
  2270                           	bcf	(65/8),(65)&7	;volatile
  2271  0DAD  1088               	goto	l1627
  2272  0DAE  2DAF               	line	26
  2273                           ;heat.c: 26:     }
  2274                           	
  2275                           l72:	
  2276  0DAF                     	line	27
  2277                           	
  2278                           l1627:	
  2279  0DAF                     ;heat.c: 27:     if(temp < temp_cible -1){
  2280                           	bcf	status, 5	;RP0=0, select bank0
  2281  0DAF  1283               	bcf	status, 6	;RP1=0, select bank0
  2282  0DB0  1303               	movf	(check_heat@temp+3),w
  2283  0DB1  0865               	movwf	(___flge@ff1+3)
  2284  0DB2  00D5               	movf	(check_heat@temp+2),w
  2285  0DB3  0864               	movwf	(___flge@ff1+2)
  2286  0DB4  00D4               	movf	(check_heat@temp+1),w
  2287  0DB5  0863               	movwf	(___flge@ff1+1)
  2288  0DB6  00D3               	movf	(check_heat@temp),w
  2289  0DB7  0862               	movwf	(___flge@ff1)
  2290  0DB8  00D2               
  2291                           	movlw	0xbf
  2292  0DB9  30BF               	movwf	(___fladd@b+3)
  2293  0DBA  00BD               	movlw	0x80
  2294  0DBB  3080               	movwf	(___fladd@b+2)
  2295  0DBC  00BC               	movlw	0x0
  2296  0DBD  3000               	movwf	(___fladd@b+1)
  2297  0DBE  00BB               	movlw	0x0
  2298  0DBF  3000               	movwf	(___fladd@b)
  2299  0DC0  00BA               
  2300                           	bsf	status, 5	;RP0=1, select bank1
  2301  0DC1  1683               	bcf	status, 6	;RP1=0, select bank1
  2302  0DC2  1303               	movf	(_temp_cible+3)^080h,w	;volatile
  2303  0DC3  082B               	bcf	status, 5	;RP0=0, select bank0
  2304  0DC4  1283               	bcf	status, 6	;RP1=0, select bank0
  2305  0DC5  1303               	movwf	(___fladd@a+3)
  2306  0DC6  00C1               	bsf	status, 5	;RP0=1, select bank1
  2307  0DC7  1683               	bcf	status, 6	;RP1=0, select bank1
  2308  0DC8  1303               	movf	(_temp_cible+2)^080h,w	;volatile
  2309  0DC9  082A               	bcf	status, 5	;RP0=0, select bank0
  2310  0DCA  1283               	bcf	status, 6	;RP1=0, select bank0
  2311  0DCB  1303               	movwf	(___fladd@a+2)
  2312  0DCC  00C0               	bsf	status, 5	;RP0=1, select bank1
  2313  0DCD  1683               	bcf	status, 6	;RP1=0, select bank1
  2314  0DCE  1303               	movf	(_temp_cible+1)^080h,w	;volatile
  2315  0DCF  0829               	bcf	status, 5	;RP0=0, select bank0
  2316  0DD0  1283               	bcf	status, 6	;RP1=0, select bank0
  2317  0DD1  1303               	movwf	(___fladd@a+1)
  2318  0DD2  00BF               	bsf	status, 5	;RP0=1, select bank1
  2319  0DD3  1683               	bcf	status, 6	;RP1=0, select bank1
  2320  0DD4  1303               	movf	(_temp_cible)^080h,w	;volatile
  2321  0DD5  0828               	bcf	status, 5	;RP0=0, select bank0
  2322  0DD6  1283               	bcf	status, 6	;RP1=0, select bank0
  2323  0DD7  1303               	movwf	(___fladd@a)
  2324  0DD8  00BE               
  2325                           	fcall	___fladd
  2326  0DD9  120A  118A  21A9  120A  158A  	bcf	status, 5	;RP0=0, select bank0
  2327  0DDE  1283               	bcf	status, 6	;RP1=0, select bank0
  2328  0DDF  1303               	movf	(3+(?___fladd)),w
  2329  0DE0  083D               	movwf	(___flge@ff2+3)
  2330  0DE1  00D9               	movf	(2+(?___fladd)),w
  2331  0DE2  083C               	movwf	(___flge@ff2+2)
  2332  0DE3  00D8               	movf	(1+(?___fladd)),w
  2333  0DE4  083B               	movwf	(___flge@ff2+1)
  2334  0DE5  00D7               	movf	(0+(?___fladd)),w
  2335  0DE6  083A               	movwf	(___flge@ff2)
  2336  0DE7  00D6               
  2337                           	fcall	___flge
  2338  0DE8  120A  158A  2334  120A  158A  	btfsc	status,0
  2339  0DED  1803               	goto	u2231
  2340  0DEE  2DF0               	goto	u2230
  2341  0DEF  2DF1               u2231:
  2342  0DF0                     	goto	l76
  2343  0DF0  2DF6               u2230:
  2344  0DF1                     	line	28
  2345                           	
  2346                           l1629:	
  2347  0DF1                     ;heat.c: 28:         RD0 = 0;
  2348                           	bcf	status, 5	;RP0=0, select bank0
  2349  0DF1  1283               	bcf	status, 6	;RP1=0, select bank0
  2350  0DF2  1303               	bcf	(64/8),(64)&7	;volatile
  2351  0DF3  1008               	line	29
  2352                           ;heat.c: 29:         RD1 = 1;
  2353                           	bsf	(65/8),(65)&7	;volatile
  2354  0DF4  1488               	goto	l76
  2355  0DF5  2DF6               	line	30
  2356                           ;heat.c: 30:     }
  2357                           	
  2358                           l75:	
  2359  0DF6                     	line	31
  2360                           	
  2361                           l76:	
  2362  0DF6                     	return
  2363  0DF6  0008               	opt stack 0
  2364                           GLOBAL	__end_of_check_heat
  2365                           	__end_of_check_heat:
  2366  0DF7                     	signat	_check_heat,4217
  2367                           	global	_change_heat
  2368                           
  2369 ;; *************** function _change_heat *****************
  2370 ;; Defined at:
  2371 ;;		line 3 in file "heat.c"
  2372 ;; Parameters:    Size  Location     Type
  2373 ;;		None
  2374 ;; Auto vars:     Size  Location     Type
  2375 ;;		None
  2376 ;; Return value:  Size  Location     Type
  2377 ;;                  1    wreg      void 
  2378 ;; Registers used:
  2379 ;;		wreg, status,2, status,0, btemp+1, pclath, cstack
  2380 ;; Tracked objects:
  2381 ;;		On entry : 0/0
  2382 ;;		On exit  : 0/0
  2383 ;;		Unchanged: 0/0
  2384 ;; Data sizes:     COMMON   BANK0   BANK1   BANK3   BANK2
  2385 ;;      Params:         0       0       0       0       0
  2386 ;;      Locals:         0       0       0       0       0
  2387 ;;      Temps:          0       0       0       0       0
  2388 ;;      Totals:         0       0       0       0       0
  2389 ;;Total ram usage:        0 bytes
  2390 ;; Hardware stack levels used:    1
  2391 ;; Hardware stack levels required when called:    2
  2392 ;; This function calls:
  2393 ;;		___fladd
  2394 ;;		___flge
  2395 ;;		___flsub
  2396 ;; This function is called by:
  2397 ;;		_watch_heat
  2398 ;; This function uses a non-reentrant model
  2399 ;;
  2400                           psect	text5,local,class=CODE,delta=2,merge=1,group=0
  2401                           	line	3
  2402                           global __ptext5
  2403                           __ptext5:	;psect for function _change_heat
  2404  0BF7                     psect	text5
  2405                           	file	"heat.c"
  2406                           	line	3
  2407                           	global	__size_of_change_heat
  2408                           	__size_of_change_heat	equ	__end_of_change_heat-_change_heat
  2409  00E5                     	
  2410                           _change_heat:	
  2411  0BF7                     ;incstack = 0
  2412                           	opt	stack 4
  2413                           ; Regs used in _change_heat: [wreg+status,2+status,0+btemp+1+pclath+cstack]
  2414                           	line	4
  2415                           	
  2416                           l1603:	
  2417  0BF7                     ;heat.c: 4:     TRISC = 0b00000011;
  2418                           	movlw	low(03h)
  2419  0BF7  3003               	bsf	status, 5	;RP0=1, select bank1
  2420  0BF8  1683               	bcf	status, 6	;RP1=0, select bank1
  2421  0BF9  1303               	movwf	(135)^080h	;volatile
  2422  0BFA  0087               	line	5
  2423                           	
  2424                           l1605:	
  2425  0BFB                     ;heat.c: 5:     if (RC0 == 0) {
  2426                           	bcf	status, 5	;RP0=0, select bank0
  2427  0BFB  1283               	bcf	status, 6	;RP1=0, select bank0
  2428  0BFC  1303               	btfsc	(56/8),(56)&7	;volatile
  2429  0BFD  1807               	goto	u2161
  2430  0BFE  2C00               	goto	u2160
  2431  0BFF  2C01               u2161:
  2432  0C00                     	goto	l1611
  2433  0C00  2C6B               u2160:
  2434  0C01                     	line	6
  2435                           	
  2436                           l1607:	
  2437  0C01                     ;heat.c: 6:         if(temp_cible >= 26){
  2438                           	bsf	status, 5	;RP0=1, select bank1
  2439  0C01  1683               	bcf	status, 6	;RP1=0, select bank1
  2440  0C02  1303               	movf	(_temp_cible+3)^080h,w	;volatile
  2441  0C03  082B               	bcf	status, 5	;RP0=0, select bank0
  2442  0C04  1283               	bcf	status, 6	;RP1=0, select bank0
  2443  0C05  1303               	movwf	(___flge@ff1+3)
  2444  0C06  00D5               	bsf	status, 5	;RP0=1, select bank1
  2445  0C07  1683               	bcf	status, 6	;RP1=0, select bank1
  2446  0C08  1303               	movf	(_temp_cible+2)^080h,w	;volatile
  2447  0C09  082A               	bcf	status, 5	;RP0=0, select bank0
  2448  0C0A  1283               	bcf	status, 6	;RP1=0, select bank0
  2449  0C0B  1303               	movwf	(___flge@ff1+2)
  2450  0C0C  00D4               	bsf	status, 5	;RP0=1, select bank1
  2451  0C0D  1683               	bcf	status, 6	;RP1=0, select bank1
  2452  0C0E  1303               	movf	(_temp_cible+1)^080h,w	;volatile
  2453  0C0F  0829               	bcf	status, 5	;RP0=0, select bank0
  2454  0C10  1283               	bcf	status, 6	;RP1=0, select bank0
  2455  0C11  1303               	movwf	(___flge@ff1+1)
  2456  0C12  00D3               	bsf	status, 5	;RP0=1, select bank1
  2457  0C13  1683               	bcf	status, 6	;RP1=0, select bank1
  2458  0C14  1303               	movf	(_temp_cible)^080h,w	;volatile
  2459  0C15  0828               	bcf	status, 5	;RP0=0, select bank0
  2460  0C16  1283               	bcf	status, 6	;RP1=0, select bank0
  2461  0C17  1303               	movwf	(___flge@ff1)
  2462  0C18  00D2               
  2463                           	movlw	0x41
  2464  0C19  3041               	movwf	(___flge@ff2+3)
  2465  0C1A  00D9               	movlw	0xd0
  2466  0C1B  30D0               	movwf	(___flge@ff2+2)
  2467  0C1C  00D8               	movlw	0x0
  2468  0C1D  3000               	movwf	(___flge@ff2+1)
  2469  0C1E  00D7               	movlw	0x0
  2470  0C1F  3000               	movwf	(___flge@ff2)
  2471  0C20  00D6               
  2472                           	fcall	___flge
  2473  0C21  120A  158A  2334  120A  158A  	btfss	status,0
  2474  0C26  1C03               	goto	u2171
  2475  0C27  2C29               	goto	u2170
  2476  0C28  2C2A               u2171:
  2477  0C29                     	goto	l1611
  2478  0C29  2C6B               u2170:
  2479  0C2A                     	line	7
  2480                           	
  2481                           l1609:	
  2482  0C2A                     ;heat.c: 7:             temp_cible -=4;
  2483                           	movlw	0x40
  2484  0C2A  3040               	bcf	status, 5	;RP0=0, select bank0
  2485  0C2B  1283               	bcf	status, 6	;RP1=0, select bank0
  2486  0C2C  1303               	movwf	(___flsub@a+3)
  2487  0C2D  00D5               	movlw	0x80
  2488  0C2E  3080               	movwf	(___flsub@a+2)
  2489  0C2F  00D4               	movlw	0x0
  2490  0C30  3000               	movwf	(___flsub@a+1)
  2491  0C31  00D3               	movlw	0x0
  2492  0C32  3000               	movwf	(___flsub@a)
  2493  0C33  00D2               
  2494                           	bsf	status, 5	;RP0=1, select bank1
  2495  0C34  1683               	bcf	status, 6	;RP1=0, select bank1
  2496  0C35  1303               	movf	(_temp_cible+3)^080h,w	;volatile
  2497  0C36  082B               	bcf	status, 5	;RP0=0, select bank0
  2498  0C37  1283               	bcf	status, 6	;RP1=0, select bank0
  2499  0C38  1303               	movwf	(___flsub@b+3)
  2500  0C39  00D9               	bsf	status, 5	;RP0=1, select bank1
  2501  0C3A  1683               	bcf	status, 6	;RP1=0, select bank1
  2502  0C3B  1303               	movf	(_temp_cible+2)^080h,w	;volatile
  2503  0C3C  082A               	bcf	status, 5	;RP0=0, select bank0
  2504  0C3D  1283               	bcf	status, 6	;RP1=0, select bank0
  2505  0C3E  1303               	movwf	(___flsub@b+2)
  2506  0C3F  00D8               	bsf	status, 5	;RP0=1, select bank1
  2507  0C40  1683               	bcf	status, 6	;RP1=0, select bank1
  2508  0C41  1303               	movf	(_temp_cible+1)^080h,w	;volatile
  2509  0C42  0829               	bcf	status, 5	;RP0=0, select bank0
  2510  0C43  1283               	bcf	status, 6	;RP1=0, select bank0
  2511  0C44  1303               	movwf	(___flsub@b+1)
  2512  0C45  00D7               	bsf	status, 5	;RP0=1, select bank1
  2513  0C46  1683               	bcf	status, 6	;RP1=0, select bank1
  2514  0C47  1303               	movf	(_temp_cible)^080h,w	;volatile
  2515  0C48  0828               	bcf	status, 5	;RP0=0, select bank0
  2516  0C49  1283               	bcf	status, 6	;RP1=0, select bank0
  2517  0C4A  1303               	movwf	(___flsub@b)
  2518  0C4B  00D6               
  2519                           	fcall	___flsub
  2520  0C4C  120A  158A  2130  120A  158A  	bcf	status, 5	;RP0=0, select bank0
  2521  0C51  1283               	bcf	status, 6	;RP1=0, select bank0
  2522  0C52  1303               	movf	(3+(?___flsub)),w
  2523  0C53  0855               	bsf	status, 5	;RP0=1, select bank1
  2524  0C54  1683               	bcf	status, 6	;RP1=0, select bank1
  2525  0C55  1303               	movwf	(_temp_cible+3)^080h	;volatile
  2526  0C56  00AB               	bcf	status, 5	;RP0=0, select bank0
  2527  0C57  1283               	bcf	status, 6	;RP1=0, select bank0
  2528  0C58  1303               	movf	(2+(?___flsub)),w
  2529  0C59  0854               	bsf	status, 5	;RP0=1, select bank1
  2530  0C5A  1683               	bcf	status, 6	;RP1=0, select bank1
  2531  0C5B  1303               	movwf	(_temp_cible+2)^080h	;volatile
  2532  0C5C  00AA               	bcf	status, 5	;RP0=0, select bank0
  2533  0C5D  1283               	bcf	status, 6	;RP1=0, select bank0
  2534  0C5E  1303               	movf	(1+(?___flsub)),w
  2535  0C5F  0853               	bsf	status, 5	;RP0=1, select bank1
  2536  0C60  1683               	bcf	status, 6	;RP1=0, select bank1
  2537  0C61  1303               	movwf	(_temp_cible+1)^080h	;volatile
  2538  0C62  00A9               	bcf	status, 5	;RP0=0, select bank0
  2539  0C63  1283               	bcf	status, 6	;RP1=0, select bank0
  2540  0C64  1303               	movf	(0+(?___flsub)),w
  2541  0C65  0852               	bsf	status, 5	;RP0=1, select bank1
  2542  0C66  1683               	bcf	status, 6	;RP1=0, select bank1
  2543  0C67  1303               	movwf	(_temp_cible)^080h	;volatile
  2544  0C68  00A8               
  2545                           	goto	l1611
  2546  0C69  2C6B               	line	8
  2547                           ;heat.c: 8:         }
  2548                           	
  2549                           l65:	
  2550  0C6A                     	goto	l1611
  2551  0C6A  2C6B               	line	9
  2552                           ;heat.c: 9:     }
  2553                           	
  2554                           l64:	
  2555  0C6B                     	line	10
  2556                           	
  2557                           l1611:	
  2558  0C6B                     ;heat.c: 10:     if (RC1 == 0) {
  2559                           	bcf	status, 5	;RP0=0, select bank0
  2560  0C6B  1283               	bcf	status, 6	;RP1=0, select bank0
  2561  0C6C  1303               	btfsc	(57/8),(57)&7	;volatile
  2562  0C6D  1887               	goto	u2181
  2563  0C6E  2C70               	goto	u2180
  2564  0C6F  2C71               u2181:
  2565  0C70                     	goto	l68
  2566  0C70  2CDB               u2180:
  2567  0C71                     	line	11
  2568                           	
  2569                           l1613:	
  2570  0C71                     ;heat.c: 11:         if(temp_cible <= 34){
  2571                           	movlw	0x42
  2572  0C71  3042               	movwf	(___flge@ff1+3)
  2573  0C72  00D5               	movlw	0x8
  2574  0C73  3008               	movwf	(___flge@ff1+2)
  2575  0C74  00D4               	movlw	0x0
  2576  0C75  3000               	movwf	(___flge@ff1+1)
  2577  0C76  00D3               	movlw	0x0
  2578  0C77  3000               	movwf	(___flge@ff1)
  2579  0C78  00D2               
  2580                           	bsf	status, 5	;RP0=1, select bank1
  2581  0C79  1683               	bcf	status, 6	;RP1=0, select bank1
  2582  0C7A  1303               	movf	(_temp_cible+3)^080h,w	;volatile
  2583  0C7B  082B               	bcf	status, 5	;RP0=0, select bank0
  2584  0C7C  1283               	bcf	status, 6	;RP1=0, select bank0
  2585  0C7D  1303               	movwf	(___flge@ff2+3)
  2586  0C7E  00D9               	bsf	status, 5	;RP0=1, select bank1
  2587  0C7F  1683               	bcf	status, 6	;RP1=0, select bank1
  2588  0C80  1303               	movf	(_temp_cible+2)^080h,w	;volatile
  2589  0C81  082A               	bcf	status, 5	;RP0=0, select bank0
  2590  0C82  1283               	bcf	status, 6	;RP1=0, select bank0
  2591  0C83  1303               	movwf	(___flge@ff2+2)
  2592  0C84  00D8               	bsf	status, 5	;RP0=1, select bank1
  2593  0C85  1683               	bcf	status, 6	;RP1=0, select bank1
  2594  0C86  1303               	movf	(_temp_cible+1)^080h,w	;volatile
  2595  0C87  0829               	bcf	status, 5	;RP0=0, select bank0
  2596  0C88  1283               	bcf	status, 6	;RP1=0, select bank0
  2597  0C89  1303               	movwf	(___flge@ff2+1)
  2598  0C8A  00D7               	bsf	status, 5	;RP0=1, select bank1
  2599  0C8B  1683               	bcf	status, 6	;RP1=0, select bank1
  2600  0C8C  1303               	movf	(_temp_cible)^080h,w	;volatile
  2601  0C8D  0828               	bcf	status, 5	;RP0=0, select bank0
  2602  0C8E  1283               	bcf	status, 6	;RP1=0, select bank0
  2603  0C8F  1303               	movwf	(___flge@ff2)
  2604  0C90  00D6               
  2605                           	fcall	___flge
  2606  0C91  120A  158A  2334  120A  158A  	btfss	status,0
  2607  0C96  1C03               	goto	u2191
  2608  0C97  2C99               	goto	u2190
  2609  0C98  2C9A               u2191:
  2610  0C99                     	goto	l68
  2611  0C99  2CDB               u2190:
  2612  0C9A                     	line	12
  2613                           	
  2614                           l1615:	
  2615  0C9A                     ;heat.c: 12:             temp_cible +=4;
  2616                           	movlw	0x40
  2617  0C9A  3040               	bcf	status, 5	;RP0=0, select bank0
  2618  0C9B  1283               	bcf	status, 6	;RP1=0, select bank0
  2619  0C9C  1303               	movwf	(___fladd@b+3)
  2620  0C9D  00BD               	movlw	0x80
  2621  0C9E  3080               	movwf	(___fladd@b+2)
  2622  0C9F  00BC               	movlw	0x0
  2623  0CA0  3000               	movwf	(___fladd@b+1)
  2624  0CA1  00BB               	movlw	0x0
  2625  0CA2  3000               	movwf	(___fladd@b)
  2626  0CA3  00BA               
  2627                           	bsf	status, 5	;RP0=1, select bank1
  2628  0CA4  1683               	bcf	status, 6	;RP1=0, select bank1
  2629  0CA5  1303               	movf	(_temp_cible+3)^080h,w	;volatile
  2630  0CA6  082B               	bcf	status, 5	;RP0=0, select bank0
  2631  0CA7  1283               	bcf	status, 6	;RP1=0, select bank0
  2632  0CA8  1303               	movwf	(___fladd@a+3)
  2633  0CA9  00C1               	bsf	status, 5	;RP0=1, select bank1
  2634  0CAA  1683               	bcf	status, 6	;RP1=0, select bank1
  2635  0CAB  1303               	movf	(_temp_cible+2)^080h,w	;volatile
  2636  0CAC  082A               	bcf	status, 5	;RP0=0, select bank0
  2637  0CAD  1283               	bcf	status, 6	;RP1=0, select bank0
  2638  0CAE  1303               	movwf	(___fladd@a+2)
  2639  0CAF  00C0               	bsf	status, 5	;RP0=1, select bank1
  2640  0CB0  1683               	bcf	status, 6	;RP1=0, select bank1
  2641  0CB1  1303               	movf	(_temp_cible+1)^080h,w	;volatile
  2642  0CB2  0829               	bcf	status, 5	;RP0=0, select bank0
  2643  0CB3  1283               	bcf	status, 6	;RP1=0, select bank0
  2644  0CB4  1303               	movwf	(___fladd@a+1)
  2645  0CB5  00BF               	bsf	status, 5	;RP0=1, select bank1
  2646  0CB6  1683               	bcf	status, 6	;RP1=0, select bank1
  2647  0CB7  1303               	movf	(_temp_cible)^080h,w	;volatile
  2648  0CB8  0828               	bcf	status, 5	;RP0=0, select bank0
  2649  0CB9  1283               	bcf	status, 6	;RP1=0, select bank0
  2650  0CBA  1303               	movwf	(___fladd@a)
  2651  0CBB  00BE               
  2652                           	fcall	___fladd
  2653  0CBC  120A  118A  21A9  120A  158A  	bcf	status, 5	;RP0=0, select bank0
  2654  0CC1  1283               	bcf	status, 6	;RP1=0, select bank0
  2655  0CC2  1303               	movf	(3+(?___fladd)),w
  2656  0CC3  083D               	bsf	status, 5	;RP0=1, select bank1
  2657  0CC4  1683               	bcf	status, 6	;RP1=0, select bank1
  2658  0CC5  1303               	movwf	(_temp_cible+3)^080h	;volatile
  2659  0CC6  00AB               	bcf	status, 5	;RP0=0, select bank0
  2660  0CC7  1283               	bcf	status, 6	;RP1=0, select bank0
  2661  0CC8  1303               	movf	(2+(?___fladd)),w
  2662  0CC9  083C               	bsf	status, 5	;RP0=1, select bank1
  2663  0CCA  1683               	bcf	status, 6	;RP1=0, select bank1
  2664  0CCB  1303               	movwf	(_temp_cible+2)^080h	;volatile
  2665  0CCC  00AA               	bcf	status, 5	;RP0=0, select bank0
  2666  0CCD  1283               	bcf	status, 6	;RP1=0, select bank0
  2667  0CCE  1303               	movf	(1+(?___fladd)),w
  2668  0CCF  083B               	bsf	status, 5	;RP0=1, select bank1
  2669  0CD0  1683               	bcf	status, 6	;RP1=0, select bank1
  2670  0CD1  1303               	movwf	(_temp_cible+1)^080h	;volatile
  2671  0CD2  00A9               	bcf	status, 5	;RP0=0, select bank0
  2672  0CD3  1283               	bcf	status, 6	;RP1=0, select bank0
  2673  0CD4  1303               	movf	(0+(?___fladd)),w
  2674  0CD5  083A               	bsf	status, 5	;RP0=1, select bank1
  2675  0CD6  1683               	bcf	status, 6	;RP1=0, select bank1
  2676  0CD7  1303               	movwf	(_temp_cible)^080h	;volatile
  2677  0CD8  00A8               
  2678                           	goto	l68
  2679  0CD9  2CDB               	line	13
  2680                           ;heat.c: 13:         }
  2681                           	
  2682                           l67:	
  2683  0CDA                     	goto	l68
  2684  0CDA  2CDB               	line	14
  2685                           ;heat.c: 14:     }
  2686                           	
  2687                           l66:	
  2688  0CDB                     	line	15
  2689                           	
  2690                           l68:	
  2691  0CDB                     	return
  2692  0CDB  0008               	opt stack 0
  2693                           GLOBAL	__end_of_change_heat
  2694                           	__end_of_change_heat:
  2695  0CDC                     	signat	_change_heat,89
  2696                           	global	___flsub
  2697                           
  2698 ;; *************** function ___flsub *****************
  2699 ;; Defined at:
  2700 ;;		line 242 in file "C:\Program Files (x86)\Microchip\xc8\v2.00\pic\sources\c90\common\sprcadd.c"
  2701 ;; Parameters:    Size  Location     Type
  2702 ;;  a               4   50[BANK0 ] void 
  2703 ;;  b               4   54[BANK0 ] void 
  2704 ;; Auto vars:     Size  Location     Type
  2705 ;;		None
  2706 ;; Return value:  Size  Location     Type
  2707 ;;                  4   50[BANK0 ] void 
  2708 ;; Registers used:
  2709 ;;		wreg, status,2, status,0, btemp+1, pclath, cstack
  2710 ;; Tracked objects:
  2711 ;;		On entry : 0/0
  2712 ;;		On exit  : 0/0
  2713 ;;		Unchanged: 0/0
  2714 ;; Data sizes:     COMMON   BANK0   BANK1   BANK3   BANK2
  2715 ;;      Params:         0       8       0       0       0
  2716 ;;      Locals:         0       0       0       0       0
  2717 ;;      Temps:          0       0       0       0       0
  2718 ;;      Totals:         0       8       0       0       0
  2719 ;;Total ram usage:        8 bytes
  2720 ;; Hardware stack levels used:    1
  2721 ;; Hardware stack levels required when called:    1
  2722 ;; This function calls:
  2723 ;;		___fladd
  2724 ;; This function is called by:
  2725 ;;		_change_heat
  2726 ;; This function uses a non-reentrant model
  2727 ;;
  2728                           psect	text6,local,class=CODE,delta=2,merge=1,group=1
  2729                           	file	"C:\Program Files (x86)\Microchip\xc8\v2.00\pic\sources\c90\common\sprcadd.c"
  2730                           	line	242
  2731                           global __ptext6
  2732                           __ptext6:	;psect for function ___flsub
  2733  0930                     psect	text6
  2734                           	file	"C:\Program Files (x86)\Microchip\xc8\v2.00\pic\sources\c90\common\sprcadd.c"
  2735                           	line	242
  2736                           	global	__size_of___flsub
  2737                           	__size_of___flsub	equ	__end_of___flsub-___flsub
  2738  0025                     	
  2739                           ___flsub:	
  2740  0930                     ;incstack = 0
  2741                           	opt	stack 4
  2742                           ; Regs used in ___flsub: [wreg+status,2+status,0+btemp+1+pclath+cstack]
  2743                           	line	248
  2744                           	
  2745                           l1583:	
  2746  0930                     	movlw	080h
  2747  0930  3080               	bcf	status, 5	;RP0=0, select bank0
  2748  0931  1283               	bcf	status, 6	;RP1=0, select bank0
  2749  0932  1303               	xorwf	(___flsub@a+3),f
  2750  0933  06D5               	line	249
  2751                           	
  2752                           l1585:	
  2753  0934                     	movf	(___flsub@b+3),w
  2754  0934  0859               	movwf	(___fladd@b+3)
  2755  0935  00BD               	movf	(___flsub@b+2),w
  2756  0936  0858               	movwf	(___fladd@b+2)
  2757  0937  00BC               	movf	(___flsub@b+1),w
  2758  0938  0857               	movwf	(___fladd@b+1)
  2759  0939  00BB               	movf	(___flsub@b),w
  2760  093A  0856               	movwf	(___fladd@b)
  2761  093B  00BA               
  2762                           	movf	(___flsub@a+3),w
  2763  093C  0855               	movwf	(___fladd@a+3)
  2764  093D  00C1               	movf	(___flsub@a+2),w
  2765  093E  0854               	movwf	(___fladd@a+2)
  2766  093F  00C0               	movf	(___flsub@a+1),w
  2767  0940  0853               	movwf	(___fladd@a+1)
  2768  0941  00BF               	movf	(___flsub@a),w
  2769  0942  0852               	movwf	(___fladd@a)
  2770  0943  00BE               
  2771                           	fcall	___fladd
  2772  0944  120A  118A  21A9  120A  158A  	bcf	status, 5	;RP0=0, select bank0
  2773  0949  1283               	bcf	status, 6	;RP1=0, select bank0
  2774  094A  1303               	movf	(3+(?___fladd)),w
  2775  094B  083D               	movwf	(?___flsub+3)
  2776  094C  00D5               	movf	(2+(?___fladd)),w
  2777  094D  083C               	movwf	(?___flsub+2)
  2778  094E  00D4               	movf	(1+(?___fladd)),w
  2779  094F  083B               	movwf	(?___flsub+1)
  2780  0950  00D3               	movf	(0+(?___fladd)),w
  2781  0951  083A               	movwf	(?___flsub)
  2782  0952  00D2               
  2783                           	goto	l515
  2784  0953  2954               	
  2785                           l1587:	
  2786  0954                     	line	250
  2787                           	
  2788                           l515:	
  2789  0954                     	return
  2790  0954  0008               	opt stack 0
  2791                           GLOBAL	__end_of___flsub
  2792                           	__end_of___flsub:
  2793  0955                     	signat	___flsub,8316
  2794                           	global	___fladd
  2795                           
  2796 ;; *************** function ___fladd *****************
  2797 ;; Defined at:
  2798 ;;		line 10 in file "C:\Program Files (x86)\Microchip\xc8\v2.00\pic\sources\c90\common\sprcadd.c"
  2799 ;; Parameters:    Size  Location     Type
  2800 ;;  b               4   26[BANK0 ] void 
  2801 ;;  a               4   30[BANK0 ] void 
  2802 ;; Auto vars:     Size  Location     Type
  2803 ;;  grs             1   49[BANK0 ] unsigned char 
  2804 ;;  bexp            1   48[BANK0 ] unsigned char 
  2805 ;;  aexp            1   47[BANK0 ] unsigned char 
  2806 ;;  signs           1   46[BANK0 ] unsigned char 
  2807 ;; Return value:  Size  Location     Type
  2808 ;;                  4   26[BANK0 ] unsigned char 
  2809 ;; Registers used:
  2810 ;;		wreg, status,2, status,0, btemp+1
  2811 ;; Tracked objects:
  2812 ;;		On entry : 0/0
  2813 ;;		On exit  : 0/0
  2814 ;;		Unchanged: 0/0
  2815 ;; Data sizes:     COMMON   BANK0   BANK1   BANK3   BANK2
  2816 ;;      Params:         0       8       0       0       0
  2817 ;;      Locals:         0       4       0       0       0
  2818 ;;      Temps:          0      12       0       0       0
  2819 ;;      Totals:         0      24       0       0       0
  2820 ;;Total ram usage:       24 bytes
  2821 ;; Hardware stack levels used:    1
  2822 ;; This function calls:
  2823 ;;		Nothing
  2824 ;; This function is called by:
  2825 ;;		_change_heat
  2826 ;;		_check_heat
  2827 ;;		_watch_heat
  2828 ;;		___flsub
  2829 ;; This function uses a non-reentrant model
  2830 ;;
  2831                           psect	text7,local,class=CODE,delta=2,merge=1,group=1
  2832                           	line	10
  2833                           global __ptext7
  2834                           __ptext7:	;psect for function ___fladd
  2835  01A9                     psect	text7
  2836                           	file	"C:\Program Files (x86)\Microchip\xc8\v2.00\pic\sources\c90\common\sprcadd.c"
  2837                           	line	10
  2838                           	global	__size_of___fladd
  2839                           	__size_of___fladd	equ	__end_of___fladd-___fladd
  2840  02BC                     	
  2841                           ___fladd:	
  2842  01A9                     ;incstack = 0
  2843                           	opt	stack 5
  2844                           ; Regs used in ___fladd: [wreg+status,2+status,0+btemp+1]
  2845                           	line	21
  2846                           	
  2847                           l1351:	
  2848  01A9                     	bcf	status, 5	;RP0=0, select bank0
  2849  01A9  1283               	bcf	status, 6	;RP1=0, select bank0
  2850  01AA  1303               	movf	0+(___fladd@b)+03h,w
  2851  01AB  083D               	andlw	080h
  2852  01AC  3980               	movwf	(??___fladd+0)+0
  2853  01AD  00C2               	movf	(??___fladd+0)+0,w
  2854  01AE  0842               	movwf	(___fladd@signs)
  2855  01AF  00CE               	line	22
  2856                           	
  2857                           l1353:	
  2858  01B0                     	movf	0+(___fladd@b)+03h,w
  2859  01B0  083D               	movwf	(??___fladd+0)+0
  2860  01B1  00C2               	addwf	(??___fladd+0)+0,w
  2861  01B2  0742               	movwf	(??___fladd+1)+0
  2862  01B3  00C3               	movf	(??___fladd+1)+0,w
  2863  01B4  0843               	movwf	(___fladd@bexp)
  2864  01B5  00D0               	line	23
  2865                           	
  2866                           l1355:	
  2867  01B6                     	btfss	0+(___fladd@b)+02h,(7)&7
  2868  01B6  1FBC               	goto	u1571
  2869  01B7  29B9               	goto	u1570
  2870  01B8  29BA               u1571:
  2871  01B9                     	goto	l1359
  2872  01B9  29BC               u1570:
  2873  01BA                     	line	24
  2874                           	
  2875                           l1357:	
  2876  01BA                     	bsf	(___fladd@bexp)+(0/8),(0)&7
  2877  01BA  1450               	goto	l1359
  2878  01BB  29BC               	line	25
  2879                           	
  2880                           l461:	
  2881  01BC                     	line	28
  2882                           	
  2883                           l1359:	
  2884  01BC                     	movf	((___fladd@bexp)),w
  2885  01BC  0850               	btfsc	status,2
  2886  01BD  1903               	goto	u1581
  2887  01BE  29C0               	goto	u1580
  2888  01BF  29C1               u1581:
  2889  01C0                     	goto	l1369
  2890  01C0  29D2               u1580:
  2891  01C1                     	line	30
  2892                           	
  2893                           l1361:	
  2894  01C1                     		incf	((___fladd@bexp)),w
  2895  01C1  0A50               	btfss	status,2
  2896  01C2  1D03               	goto	u1591
  2897  01C3  29C5               	goto	u1590
  2898  01C4  29C6               u1591:
  2899  01C5                     	goto	l1365
  2900  01C5  29CF               u1590:
  2901  01C6                     	line	32
  2902                           	
  2903                           l1363:	
  2904  01C6                     	movlw	0x0
  2905  01C6  3000               	movwf	(___fladd@b+3)
  2906  01C7  00BD               	movlw	0x0
  2907  01C8  3000               	movwf	(___fladd@b+2)
  2908  01C9  00BC               	movlw	0x0
  2909  01CA  3000               	movwf	(___fladd@b+1)
  2910  01CB  00BB               	movlw	0x0
  2911  01CC  3000               	movwf	(___fladd@b)
  2912  01CD  00BA               
  2913                           	goto	l1365
  2914  01CE  29CF               	line	33
  2915                           	
  2916                           l463:	
  2917  01CF                     	line	35
  2918                           	
  2919                           l1365:	
  2920  01CF                     	bsf	(___fladd@b)+(23/8),(23)&7
  2921  01CF  17BC               	line	37
  2922                           	
  2923                           l1367:	
  2924  01D0                     	clrf	0+(___fladd@b)+03h
  2925  01D0  01BD               	line	38
  2926                           	goto	l1371
  2927  01D1  29DB               	line	39
  2928                           	
  2929                           l462:	
  2930  01D2                     	line	41
  2931                           	
  2932                           l1369:	
  2933  01D2                     	movlw	0x0
  2934  01D2  3000               	movwf	(___fladd@b+3)
  2935  01D3  00BD               	movlw	0x0
  2936  01D4  3000               	movwf	(___fladd@b+2)
  2937  01D5  00BC               	movlw	0x0
  2938  01D6  3000               	movwf	(___fladd@b+1)
  2939  01D7  00BB               	movlw	0x0
  2940  01D8  3000               	movwf	(___fladd@b)
  2941  01D9  00BA               
  2942                           	goto	l1371
  2943  01DA  29DB               	line	42
  2944                           	
  2945                           l464:	
  2946  01DB                     	line	44
  2947                           	
  2948                           l1371:	
  2949  01DB                     	movf	0+(___fladd@a)+03h,w
  2950  01DB  0841               	andlw	080h
  2951  01DC  3980               	movwf	(??___fladd+0)+0
  2952  01DD  00C2               	movf	(??___fladd+0)+0,w
  2953  01DE  0842               	movwf	(___fladd@aexp)
  2954  01DF  00CF               	line	46
  2955                           	
  2956                           l1373:	
  2957  01E0                     	movf	(___fladd@aexp),w
  2958  01E0  084F               	xorwf	(___fladd@signs),w
  2959  01E1  064E               	skipnz
  2960  01E2  1903               	goto	u1601
  2961  01E3  29E5               	goto	u1600
  2962  01E4  29E6               u1601:
  2963  01E5                     	goto	l1377
  2964  01E5  29E8               u1600:
  2965  01E6                     	line	47
  2966                           	
  2967                           l1375:	
  2968  01E6                     	bsf	(___fladd@signs)+(6/8),(6)&7
  2969  01E6  174E               	goto	l1377
  2970  01E7  29E8               	line	48
  2971                           	
  2972                           l465:	
  2973  01E8                     	line	49
  2974                           	
  2975                           l1377:	
  2976  01E8                     	movf	0+(___fladd@a)+03h,w
  2977  01E8  0841               	movwf	(??___fladd+0)+0
  2978  01E9  00C2               	addwf	(??___fladd+0)+0,w
  2979  01EA  0742               	movwf	(??___fladd+1)+0
  2980  01EB  00C3               	movf	(??___fladd+1)+0,w
  2981  01EC  0843               	movwf	(___fladd@aexp)
  2982  01ED  00CF               	line	50
  2983                           	
  2984                           l1379:	
  2985  01EE                     	btfss	0+(___fladd@a)+02h,(7)&7
  2986  01EE  1FC0               	goto	u1611
  2987  01EF  29F1               	goto	u1610
  2988  01F0  29F2               u1611:
  2989  01F1                     	goto	l1383
  2990  01F1  29F4               u1610:
  2991  01F2                     	line	51
  2992                           	
  2993                           l1381:	
  2994  01F2                     	bsf	(___fladd@aexp)+(0/8),(0)&7
  2995  01F2  144F               	goto	l1383
  2996  01F3  29F4               	line	52
  2997                           	
  2998                           l466:	
  2999  01F4                     	line	55
  3000                           	
  3001                           l1383:	
  3002  01F4                     	movf	((___fladd@aexp)),w
  3003  01F4  084F               	btfsc	status,2
  3004  01F5  1903               	goto	u1621
  3005  01F6  29F8               	goto	u1620
  3006  01F7  29F9               u1621:
  3007  01F8                     	goto	l1393
  3008  01F8  2A0A               u1620:
  3009  01F9                     	line	57
  3010                           	
  3011                           l1385:	
  3012  01F9                     		incf	((___fladd@aexp)),w
  3013  01F9  0A4F               	btfss	status,2
  3014  01FA  1D03               	goto	u1631
  3015  01FB  29FD               	goto	u1630
  3016  01FC  29FE               u1631:
  3017  01FD                     	goto	l1389
  3018  01FD  2A07               u1630:
  3019  01FE                     	line	59
  3020                           	
  3021                           l1387:	
  3022  01FE                     	movlw	0x0
  3023  01FE  3000               	movwf	(___fladd@a+3)
  3024  01FF  00C1               	movlw	0x0
  3025  0200  3000               	movwf	(___fladd@a+2)
  3026  0201  00C0               	movlw	0x0
  3027  0202  3000               	movwf	(___fladd@a+1)
  3028  0203  00BF               	movlw	0x0
  3029  0204  3000               	movwf	(___fladd@a)
  3030  0205  00BE               
  3031                           	goto	l1389
  3032  0206  2A07               	line	60
  3033                           	
  3034                           l468:	
  3035  0207                     	line	62
  3036                           	
  3037                           l1389:	
  3038  0207                     	bsf	(___fladd@a)+(23/8),(23)&7
  3039  0207  17C0               	line	64
  3040                           	
  3041                           l1391:	
  3042  0208                     	clrf	0+(___fladd@a)+03h
  3043  0208  01C1               	line	65
  3044                           	goto	l469
  3045  0209  2A12               	line	66
  3046                           	
  3047                           l467:	
  3048  020A                     	line	68
  3049                           	
  3050                           l1393:	
  3051  020A                     	movlw	0x0
  3052  020A  3000               	movwf	(___fladd@a+3)
  3053  020B  00C1               	movlw	0x0
  3054  020C  3000               	movwf	(___fladd@a+2)
  3055  020D  00C0               	movlw	0x0
  3056  020E  3000               	movwf	(___fladd@a+1)
  3057  020F  00BF               	movlw	0x0
  3058  0210  3000               	movwf	(___fladd@a)
  3059  0211  00BE               
  3060                           	line	69
  3061                           	
  3062                           l469:	
  3063  0212                     	line	75
  3064                           	movf	(___fladd@bexp),w
  3065  0212  0850               	subwf	(___fladd@aexp),w
  3066  0213  024F               	skipnc
  3067  0214  1803               	goto	u1641
  3068  0215  2A17               	goto	u1640
  3069  0216  2A18               u1641:
  3070  0217                     	goto	l1429
  3071  0217  2A5E               u1640:
  3072  0218                     	line	77
  3073                           	
  3074                           l1395:	
  3075  0218                     	btfss	(___fladd@signs),(6)&7
  3076  0218  1F4E               	goto	u1651
  3077  0219  2A1B               	goto	u1650
  3078  021A  2A1C               u1651:
  3079  021B                     	goto	l1399
  3080  021B  2A21               u1650:
  3081  021C                     	line	78
  3082                           	
  3083                           l1397:	
  3084  021C                     	movlw	low(080h)
  3085  021C  3080               	movwf	(??___fladd+0)+0
  3086  021D  00C2               	movf	(??___fladd+0)+0,w
  3087  021E  0842               	xorwf	(___fladd@signs),f
  3088  021F  06CE               	goto	l1399
  3089  0220  2A21               	line	79
  3090                           	
  3091                           l471:	
  3092  0221                     	line	81
  3093                           	
  3094                           l1399:	
  3095  0221                     	movf	(___fladd@bexp),w
  3096  0221  0850               	movwf	(??___fladd+0)+0
  3097  0222  00C2               	movf	(??___fladd+0)+0,w
  3098  0223  0842               	movwf	(___fladd@grs)
  3099  0224  00D1               	line	82
  3100                           	
  3101                           l1401:	
  3102  0225                     	movf	(___fladd@aexp),w
  3103  0225  084F               	movwf	(??___fladd+0)+0
  3104  0226  00C2               	movf	(??___fladd+0)+0,w
  3105  0227  0842               	movwf	(___fladd@bexp)
  3106  0228  00D0               	line	83
  3107                           	
  3108                           l1403:	
  3109  0229                     	movf	(___fladd@grs),w
  3110  0229  0851               	movwf	(??___fladd+0)+0
  3111  022A  00C2               	movf	(??___fladd+0)+0,w
  3112  022B  0842               	movwf	(___fladd@aexp)
  3113  022C  00CF               	line	84
  3114                           	
  3115                           l1405:	
  3116  022D                     	movf	(___fladd@b),w
  3117  022D  083A               	movwf	(??___fladd+0)+0
  3118  022E  00C2               	movf	(??___fladd+0)+0,w
  3119  022F  0842               	movwf	(___fladd@grs)
  3120  0230  00D1               	line	85
  3121                           	
  3122                           l1407:	
  3123  0231                     	movf	(___fladd@a),w
  3124  0231  083E               	movwf	(??___fladd+0)+0
  3125  0232  00C2               	movf	(??___fladd+0)+0,w
  3126  0233  0842               	movwf	(___fladd@b)
  3127  0234  00BA               	line	86
  3128                           	
  3129                           l1409:	
  3130  0235                     	movf	(___fladd@grs),w
  3131  0235  0851               	movwf	(??___fladd+0)+0
  3132  0236  00C2               	movf	(??___fladd+0)+0,w
  3133  0237  0842               	movwf	(___fladd@a)
  3134  0238  00BE               	line	87
  3135                           	
  3136                           l1411:	
  3137  0239                     	movf	0+(___fladd@b)+01h,w
  3138  0239  083B               	movwf	(??___fladd+0)+0
  3139  023A  00C2               	movf	(??___fladd+0)+0,w
  3140  023B  0842               	movwf	(___fladd@grs)
  3141  023C  00D1               	line	88
  3142                           	
  3143                           l1413:	
  3144  023D                     	movf	0+(___fladd@a)+01h,w
  3145  023D  083F               	movwf	(??___fladd+0)+0
  3146  023E  00C2               	movf	(??___fladd+0)+0,w
  3147  023F  0842               	movwf	0+(___fladd@b)+01h
  3148  0240  00BB               	line	89
  3149                           	
  3150                           l1415:	
  3151  0241                     	movf	(___fladd@grs),w
  3152  0241  0851               	movwf	(??___fladd+0)+0
  3153  0242  00C2               	movf	(??___fladd+0)+0,w
  3154  0243  0842               	movwf	0+(___fladd@a)+01h
  3155  0244  00BF               	line	90
  3156                           	
  3157                           l1417:	
  3158  0245                     	movf	0+(___fladd@b)+02h,w
  3159  0245  083C               	movwf	(??___fladd+0)+0
  3160  0246  00C2               	movf	(??___fladd+0)+0,w
  3161  0247  0842               	movwf	(___fladd@grs)
  3162  0248  00D1               	line	91
  3163                           	
  3164                           l1419:	
  3165  0249                     	movf	0+(___fladd@a)+02h,w
  3166  0249  0840               	movwf	(??___fladd+0)+0
  3167  024A  00C2               	movf	(??___fladd+0)+0,w
  3168  024B  0842               	movwf	0+(___fladd@b)+02h
  3169  024C  00BC               	line	92
  3170                           	
  3171                           l1421:	
  3172  024D                     	movf	(___fladd@grs),w
  3173  024D  0851               	movwf	(??___fladd+0)+0
  3174  024E  00C2               	movf	(??___fladd+0)+0,w
  3175  024F  0842               	movwf	0+(___fladd@a)+02h
  3176  0250  00C0               	line	93
  3177                           	
  3178                           l1423:	
  3179  0251                     	movf	0+(___fladd@b)+03h,w
  3180  0251  083D               	movwf	(??___fladd+0)+0
  3181  0252  00C2               	movf	(??___fladd+0)+0,w
  3182  0253  0842               	movwf	(___fladd@grs)
  3183  0254  00D1               	line	94
  3184                           	
  3185                           l1425:	
  3186  0255                     	movf	0+(___fladd@a)+03h,w
  3187  0255  0841               	movwf	(??___fladd+0)+0
  3188  0256  00C2               	movf	(??___fladd+0)+0,w
  3189  0257  0842               	movwf	0+(___fladd@b)+03h
  3190  0258  00BD               	line	95
  3191                           	
  3192                           l1427:	
  3193  0259                     	movf	(___fladd@grs),w
  3194  0259  0851               	movwf	(??___fladd+0)+0
  3195  025A  00C2               	movf	(??___fladd+0)+0,w
  3196  025B  0842               	movwf	0+(___fladd@a)+03h
  3197  025C  00C1               	goto	l1429
  3198  025D  2A5E               	line	96
  3199                           	
  3200                           l470:	
  3201  025E                     	line	98
  3202                           	
  3203                           l1429:	
  3204  025E                     	clrf	(___fladd@grs)
  3205  025E  01D1               	line	100
  3206                           	
  3207                           l1431:	
  3208  025F                     	movf	(___fladd@bexp),w
  3209  025F  0850               	movwf	(??___fladd+0)+0
  3210  0260  00C2               	clrf	(??___fladd+0)+0+1
  3211  0261  01C3               	comf	(??___fladd+0)+0,f
  3212  0262  09C2               	comf	(??___fladd+0)+1,f
  3213  0263  09C3               	incf	(??___fladd+0)+0,f
  3214  0264  0AC2               	skipnz
  3215  0265  1903               	incf	(??___fladd+0)+1,f
  3216  0266  0AC3               	movf	(___fladd@aexp),w
  3217  0267  084F               	addwf	0+(??___fladd+0)+0,w
  3218  0268  0742               	movwf	(??___fladd+2)+0
  3219  0269  00C4               	movf	1+(??___fladd+0)+0,w
  3220  026A  0843               	skipnc
  3221  026B  1803               	incf	1+(??___fladd+0)+0,w
  3222  026C  0A43               	movwf	((??___fladd+2)+0)+1
  3223  026D  00C5               	movf	1+(??___fladd+2)+0,w
  3224  026E  0845               	xorlw	80h
  3225  026F  3A80               	movwf	btemp+1
  3226  0270  00FF               	movlw	(0)^80h
  3227  0271  3080               	subwf	btemp+1,w
  3228  0272  027F               	skipz
  3229  0273  1D03               	goto	u1665
  3230  0274  2A77               	movlw	01Ah
  3231  0275  301A               	subwf	0+(??___fladd+2)+0,w
  3232  0276  0244               u1665:
  3233  0277                     
  3234                           	skipc
  3235  0277  1C03               	goto	u1661
  3236  0278  2A7A               	goto	u1660
  3237  0279  2A7B               u1661:
  3238  027A                     	goto	l1447
  3239  027A  2ABC               u1660:
  3240  027B                     	line	101
  3241                           	
  3242                           l1433:	
  3243  027B                     	bcf	status, 5	;RP0=0, select bank0
  3244  027B  1283               	bcf	status, 6	;RP1=0, select bank0
  3245  027C  1303               	movf	(___fladd@b+3),w
  3246  027D  083D               	iorwf	(___fladd@b+2),w
  3247  027E  043C               	iorwf	(___fladd@b+1),w
  3248  027F  043B               	iorwf	(___fladd@b),w
  3249  0280  043A               	skipz
  3250  0281  1D03               	goto	u1671
  3251  0282  2A84               	goto	u1670
  3252  0283  2A86               u1671:
  3253  0284                     	movlw	1
  3254  0284  3001               	goto	u1680
  3255  0285  2A87               u1670:
  3256  0286                     	movlw	0
  3257  0286  3000               u1680:
  3258  0287                     	movwf	(??___fladd+0)+0
  3259  0287  00C2               	movf	(??___fladd+0)+0,w
  3260  0288  0842               	movwf	(___fladd@grs)
  3261  0289  00D1               	line	102
  3262                           	movlw	high highword(0)
  3263  028A  3000               	movwf	(___fladd@b+3)
  3264  028B  00BD               	movlw	low highword(0)
  3265  028C  3000               	movwf	(___fladd@b+2)
  3266  028D  00BC               	movlw	high(0)
  3267  028E  3000               	movwf	(___fladd@b+1)
  3268  028F  00BB               	movlw	low(0)
  3269  0290  3000               	movwf	(___fladd@b)
  3270  0291  00BA               
  3271                           	line	103
  3272                           	movf	(___fladd@aexp),w
  3273  0292  084F               	movwf	(??___fladd+0)+0
  3274  0293  00C2               	movf	(??___fladd+0)+0,w
  3275  0294  0842               	movwf	(___fladd@bexp)
  3276  0295  00D0               	line	104
  3277                           	goto	l473
  3278  0296  2AC5               	line	105
  3279                           	
  3280                           l472:	
  3281  0297                     	line	106
  3282                           	goto	l1447
  3283  0297  2ABC               	
  3284                           l475:	
  3285  0298                     	line	109
  3286                           	btfss	(___fladd@grs),(0)&7
  3287  0298  1C51               	goto	u1691
  3288  0299  2A9B               	goto	u1690
  3289  029A  2A9C               u1691:
  3290  029B                     	goto	l1437
  3291  029B  2AA5               u1690:
  3292  029C                     	line	110
  3293                           	
  3294                           l1435:	
  3295  029C                     	movf	(___fladd@grs),w
  3296  029C  0851               	movwf	(??___fladd+0)+0
  3297  029D  00C2               	clrc
  3298  029E  1003               	rrf	(??___fladd+0)+0,w
  3299  029F  0C42               	iorlw	01h
  3300  02A0  3801               	movwf	(??___fladd+1)+0
  3301  02A1  00C3               	movf	(??___fladd+1)+0,w
  3302  02A2  0843               	movwf	(___fladd@grs)
  3303  02A3  00D1               	line	111
  3304                           	goto	l1439
  3305  02A4  2AA8               	line	112
  3306                           	
  3307                           l476:	
  3308  02A5                     	line	113
  3309                           	
  3310                           l1437:	
  3311  02A5                     	clrc
  3312  02A5  1003               	rrf	(___fladd@grs),f
  3313  02A6  0CD1               
  3314                           	goto	l1439
  3315  02A7  2AA8               	line	114
  3316                           	
  3317                           l477:	
  3318  02A8                     	line	115
  3319                           	
  3320                           l1439:	
  3321  02A8                     	btfss	(___fladd@b),(0)&7
  3322  02A8  1C3A               	goto	u1701
  3323  02A9  2AAB               	goto	u1700
  3324  02AA  2AAC               u1701:
  3325  02AB                     	goto	l1443
  3326  02AB  2AAE               u1700:
  3327  02AC                     	line	116
  3328                           	
  3329                           l1441:	
  3330  02AC                     	bsf	(___fladd@grs)+(7/8),(7)&7
  3331  02AC  17D1               	goto	l1443
  3332  02AD  2AAE               	line	117
  3333                           	
  3334                           l478:	
  3335  02AE                     	line	118
  3336                           	
  3337                           l1443:	
  3338  02AE                     	movlw	01h
  3339  02AE  3001               	movwf	(??___fladd+0)+0
  3340  02AF  00C2               u1715:
  3341  02B0                     	rlf	(___fladd@b+3),w
  3342  02B0  0D3D               	rrf	(___fladd@b+3),f
  3343  02B1  0CBD               	rrf	(___fladd@b+2),f
  3344  02B2  0CBC               	rrf	(___fladd@b+1),f
  3345  02B3  0CBB               	rrf	(___fladd@b),f
  3346  02B4  0CBA               	decfsz	(??___fladd+0)+0&07fh,f
  3347  02B5  0BC2               	goto	u1715
  3348  02B6  2AB0               
  3349                           	line	119
  3350                           	
  3351                           l1445:	
  3352  02B7                     	movlw	low(01h)
  3353  02B7  3001               	movwf	(??___fladd+0)+0
  3354  02B8  00C2               	movf	(??___fladd+0)+0,w
  3355  02B9  0842               	addwf	(___fladd@bexp),f
  3356  02BA  07D0               	goto	l1447
  3357  02BB  2ABC               	line	120
  3358                           	
  3359                           l474:	
  3360  02BC                     	line	106
  3361                           	
  3362                           l1447:	
  3363  02BC                     	bcf	status, 5	;RP0=0, select bank0
  3364  02BC  1283               	bcf	status, 6	;RP1=0, select bank0
  3365  02BD  1303               	movf	(___fladd@aexp),w
  3366  02BE  084F               	subwf	(___fladd@bexp),w
  3367  02BF  0250               	skipc
  3368  02C0  1C03               	goto	u1721
  3369  02C1  2AC3               	goto	u1720
  3370  02C2  2AC4               u1721:
  3371  02C3                     	goto	l475
  3372  02C3  2A98               u1720:
  3373  02C4                     	goto	l473
  3374  02C4  2AC5               	
  3375                           l479:	
  3376  02C5                     	line	121
  3377                           	
  3378                           l473:	
  3379  02C5                     	line	124
  3380                           	btfsc	(___fladd@signs),(6)&7
  3381  02C5  1B4E               	goto	u1731
  3382  02C6  2AC8               	goto	u1730
  3383  02C7  2AC9               u1731:
  3384  02C8                     	goto	l1473
  3385  02C8  2B18               u1730:
  3386  02C9                     	line	127
  3387                           	
  3388                           l1449:	
  3389  02C9                     	movf	((___fladd@bexp)),w
  3390  02C9  0850               	btfss	status,2
  3391  02CA  1D03               	goto	u1741
  3392  02CB  2ACD               	goto	u1740
  3393  02CC  2ACE               u1741:
  3394  02CD                     	goto	l1455
  3395  02CD  2AD8               u1740:
  3396  02CE                     	line	128
  3397                           	
  3398                           l1451:	
  3399  02CE                     	movlw	0x0
  3400  02CE  3000               	movwf	(?___fladd+3)
  3401  02CF  00BD               	movlw	0x0
  3402  02D0  3000               	movwf	(?___fladd+2)
  3403  02D1  00BC               	movlw	0x0
  3404  02D2  3000               	movwf	(?___fladd+1)
  3405  02D3  00BB               	movlw	0x0
  3406  02D4  3000               	movwf	(?___fladd)
  3407  02D5  00BA               
  3408                           	goto	l482
  3409  02D6  2C64               	
  3410                           l1453:	
  3411  02D7                     	goto	l482
  3412  02D7  2C64               	line	129
  3413                           	
  3414                           l481:	
  3415  02D8                     	line	132
  3416                           	
  3417                           l1455:	
  3418  02D8                     	movf	(___fladd@a),w
  3419  02D8  083E               	addwf	(___fladd@b),f
  3420  02D9  07BA               	movf	(___fladd@a+1),w
  3421  02DA  083F               	clrz
  3422  02DB  1103               	skipnc
  3423  02DC  1803               	addlw	1
  3424  02DD  3E01               	skipnz
  3425  02DE  1903               	goto	u1751
  3426  02DF  2AE1               	addwf	(___fladd@b+1),f
  3427  02E0  07BB               u1751:
  3428  02E1                     	movf	(___fladd@a+2),w
  3429  02E1  0840               	clrz
  3430  02E2  1103               	skipnc
  3431  02E3  1803               	addlw	1
  3432  02E4  3E01               	skipnz
  3433  02E5  1903               	goto	u1752
  3434  02E6  2AE8               	addwf	(___fladd@b+2),f
  3435  02E7  07BC               u1752:
  3436  02E8                     	movf	(___fladd@a+3),w
  3437  02E8  0841               	clrz
  3438  02E9  1103               	skipnc
  3439  02EA  1803               	addlw	1
  3440  02EB  3E01               	skipnz
  3441  02EC  1903               	goto	u1753
  3442  02ED  2AEF               	addwf	(___fladd@b+3),f
  3443  02EE  07BD               u1753:
  3444  02EF                     
  3445                           	line	134
  3446                           	
  3447                           l1457:	
  3448  02EF                     	btfss	(___fladd@b+3),(24)&7
  3449  02EF  1C3D               	goto	u1761
  3450  02F0  2AF2               	goto	u1760
  3451  02F1  2AF3               u1761:
  3452  02F2                     	goto	l1507
  3453  02F2  2BE1               u1760:
  3454  02F3                     	line	135
  3455                           	
  3456                           l1459:	
  3457  02F3                     	btfss	(___fladd@grs),(0)&7
  3458  02F3  1C51               	goto	u1771
  3459  02F4  2AF6               	goto	u1770
  3460  02F5  2AF7               u1771:
  3461  02F6                     	goto	l1463
  3462  02F6  2B00               u1770:
  3463  02F7                     	line	136
  3464                           	
  3465                           l1461:	
  3466  02F7                     	movf	(___fladd@grs),w
  3467  02F7  0851               	movwf	(??___fladd+0)+0
  3468  02F8  00C2               	clrc
  3469  02F9  1003               	rrf	(??___fladd+0)+0,w
  3470  02FA  0C42               	iorlw	01h
  3471  02FB  3801               	movwf	(??___fladd+1)+0
  3472  02FC  00C3               	movf	(??___fladd+1)+0,w
  3473  02FD  0843               	movwf	(___fladd@grs)
  3474  02FE  00D1               	line	137
  3475                           	goto	l1465
  3476  02FF  2B03               	line	138
  3477                           	
  3478                           l484:	
  3479  0300                     	line	139
  3480                           	
  3481                           l1463:	
  3482  0300                     	clrc
  3483  0300  1003               	rrf	(___fladd@grs),f
  3484  0301  0CD1               
  3485                           	goto	l1465
  3486  0302  2B03               	line	140
  3487                           	
  3488                           l485:	
  3489  0303                     	line	141
  3490                           	
  3491                           l1465:	
  3492  0303                     	btfss	(___fladd@b),(0)&7
  3493  0303  1C3A               	goto	u1781
  3494  0304  2B06               	goto	u1780
  3495  0305  2B07               u1781:
  3496  0306                     	goto	l1469
  3497  0306  2B09               u1780:
  3498  0307                     	line	142
  3499                           	
  3500                           l1467:	
  3501  0307                     	bsf	(___fladd@grs)+(7/8),(7)&7
  3502  0307  17D1               	goto	l1469
  3503  0308  2B09               	line	143
  3504                           	
  3505                           l486:	
  3506  0309                     	line	144
  3507                           	
  3508                           l1469:	
  3509  0309                     	movlw	01h
  3510  0309  3001               	movwf	(??___fladd+0)+0
  3511  030A  00C2               u1795:
  3512  030B                     	rlf	(___fladd@b+3),w
  3513  030B  0D3D               	rrf	(___fladd@b+3),f
  3514  030C  0CBD               	rrf	(___fladd@b+2),f
  3515  030D  0CBC               	rrf	(___fladd@b+1),f
  3516  030E  0CBB               	rrf	(___fladd@b),f
  3517  030F  0CBA               	decfsz	(??___fladd+0)+0&07fh,f
  3518  0310  0BC2               	goto	u1795
  3519  0311  2B0B               
  3520                           	line	145
  3521                           	
  3522                           l1471:	
  3523  0312                     	movlw	low(01h)
  3524  0312  3001               	movwf	(??___fladd+0)+0
  3525  0313  00C2               	movf	(??___fladd+0)+0,w
  3526  0314  0842               	addwf	(___fladd@bexp),f
  3527  0315  07D0               	goto	l1507
  3528  0316  2BE1               	line	146
  3529                           	
  3530                           l483:	
  3531  0317                     	line	148
  3532                           	goto	l1507
  3533  0317  2BE1               	line	149
  3534                           	
  3535                           l480:	
  3536  0318                     	line	153
  3537                           	
  3538                           l1473:	
  3539  0318                     	movf	(___fladd@b+3),w
  3540  0318  083D               	xorlw	80h
  3541  0319  3A80               	movwf	btemp+1
  3542  031A  00FF               	movf	(___fladd@a+3),w
  3543  031B  0841               	xorlw	80h
  3544  031C  3A80               	subwf	btemp+1,w
  3545  031D  027F               	
  3546                           	skipz
  3547  031E  1D03               	goto	u1803
  3548  031F  2B2A               	movf	(___fladd@a+2),w
  3549  0320  0840               	subwf	(___fladd@b+2),w
  3550  0321  023C               	skipz
  3551  0322  1D03               	goto	u1803
  3552  0323  2B2A               	movf	(___fladd@a+1),w
  3553  0324  083F               	subwf	(___fladd@b+1),w
  3554  0325  023B               	skipz
  3555  0326  1D03               	goto	u1803
  3556  0327  2B2A               	movf	(___fladd@a),w
  3557  0328  083E               	subwf	(___fladd@b),w
  3558  0329  023A               u1803:
  3559  032A                     	skipnc
  3560  032A  1803               	goto	u1801
  3561  032B  2B2D               	goto	u1800
  3562  032C  2B2E               u1801:
  3563  032D                     	goto	l1483
  3564  032D  2B94               u1800:
  3565  032E                     	line	154
  3566                           	
  3567                           l1475:	
  3568  032E                     	movlw	0FFh
  3569  032E  30FF               	movwf	((??___fladd+0)+0)
  3570  032F  00C2               	movlw	0FFh
  3571  0330  30FF               	movwf	((??___fladd+0)+0+1)
  3572  0331  00C3               	movlw	0FFh
  3573  0332  30FF               	movwf	((??___fladd+0)+0+2)
  3574  0333  00C4               	movlw	0FFh
  3575  0334  30FF               	movwf	((??___fladd+0)+0+3)
  3576  0335  00C5               	movf	(___fladd@a),w
  3577  0336  083E               	movwf	(??___fladd+4)+0
  3578  0337  00C6               	movf	(___fladd@a+1),w
  3579  0338  083F               	movwf	((??___fladd+4)+0+1)
  3580  0339  00C7               	movf	(___fladd@a+2),w
  3581  033A  0840               	movwf	((??___fladd+4)+0+2)
  3582  033B  00C8               	movf	(___fladd@a+3),w
  3583  033C  0841               	movwf	((??___fladd+4)+0+3)
  3584  033D  00C9               	comf	(___fladd@b),w
  3585  033E  093A               	movwf	(??___fladd+8)+0
  3586  033F  00CA               	comf	(___fladd@b+1),w
  3587  0340  093B               	movwf	((??___fladd+8)+0+1)
  3588  0341  00CB               	comf	(___fladd@b+2),w
  3589  0342  093C               	movwf	((??___fladd+8)+0+2)
  3590  0343  00CC               	comf	(___fladd@b+3),w
  3591  0344  093D               	movwf	((??___fladd+8)+0+3)
  3592  0345  00CD               	incf	(??___fladd+8)+0,f
  3593  0346  0ACA               	skipnz
  3594  0347  1903               	incf	((??___fladd+8)+0+1),f
  3595  0348  0ACB               	skipnz
  3596  0349  1903               	incf	((??___fladd+8)+0+2),f
  3597  034A  0ACC               	skipnz
  3598  034B  1903               	incf	((??___fladd+8)+0+3),f
  3599  034C  0ACD               	movf	0+(??___fladd+8)+0,w
  3600  034D  084A               	addwf	(??___fladd+4)+0,f
  3601  034E  07C6               	movf	1+(??___fladd+8)+0,w
  3602  034F  084B               	skipnc
  3603  0350  1803               	incfsz	1+(??___fladd+8)+0,w
  3604  0351  0F4B               	goto	u1810
  3605  0352  2B54               	goto	u1811
  3606  0353  2B55               u1810:
  3607  0354                     	addwf	(??___fladd+4)+1,f
  3608  0354  07C7               u1811:
  3609  0355                     	movf	2+(??___fladd+8)+0,w
  3610  0355  084C               	skipnc
  3611  0356  1803               	incfsz	2+(??___fladd+8)+0,w
  3612  0357  0F4C               	goto	u1812
  3613  0358  2B5A               	goto	u1813
  3614  0359  2B5B               u1812:
  3615  035A                     	addwf	(??___fladd+4)+2,f
  3616  035A  07C8               u1813:
  3617  035B                     	movf	3+(??___fladd+8)+0,w
  3618  035B  084D               	skipnc
  3619  035C  1803               	incf	3+(??___fladd+8)+0,w
  3620  035D  0A4D               	addwf	(??___fladd+4)+3,f
  3621  035E  07C9               	movf	0+(??___fladd+4)+0,w
  3622  035F  0846               	addwf	(??___fladd+0)+0,f
  3623  0360  07C2               	movf	1+(??___fladd+4)+0,w
  3624  0361  0847               	skipnc
  3625  0362  1803               	incfsz	1+(??___fladd+4)+0,w
  3626  0363  0F47               	goto	u1820
  3627  0364  2B66               	goto	u1821
  3628  0365  2B67               u1820:
  3629  0366                     	addwf	(??___fladd+0)+1,f
  3630  0366  07C3               u1821:
  3631  0367                     	movf	2+(??___fladd+4)+0,w
  3632  0367  0848               	skipnc
  3633  0368  1803               	incfsz	2+(??___fladd+4)+0,w
  3634  0369  0F48               	goto	u1822
  3635  036A  2B6C               	goto	u1823
  3636  036B  2B6D               u1822:
  3637  036C                     	addwf	(??___fladd+0)+2,f
  3638  036C  07C4               u1823:
  3639  036D                     	movf	3+(??___fladd+4)+0,w
  3640  036D  0849               	skipnc
  3641  036E  1803               	incf	3+(??___fladd+4)+0,w
  3642  036F  0A49               	addwf	(??___fladd+0)+3,f
  3643  0370  07C5               	movf	3+(??___fladd+0)+0,w
  3644  0371  0845               	movwf	(___fladd@b+3)
  3645  0372  00BD               	movf	2+(??___fladd+0)+0,w
  3646  0373  0844               	movwf	(___fladd@b+2)
  3647  0374  00BC               	movf	1+(??___fladd+0)+0,w
  3648  0375  0843               	movwf	(___fladd@b+1)
  3649  0376  00BB               	movf	0+(??___fladd+0)+0,w
  3650  0377  0842               	movwf	(___fladd@b)
  3651  0378  00BA               
  3652                           	line	155
  3653                           	movlw	low(080h)
  3654  0379  3080               	movwf	(??___fladd+0)+0
  3655  037A  00C2               	movf	(??___fladd+0)+0,w
  3656  037B  0842               	xorwf	(___fladd@signs),f
  3657  037C  06CE               	line	156
  3658                           	
  3659                           l1477:	
  3660  037D                     	comf	(___fladd@grs),f
  3661  037D  09D1               	incf	(___fladd@grs),f
  3662  037E  0AD1               	line	157
  3663                           	
  3664                           l1479:	
  3665  037F                     	movf	((___fladd@grs)),w
  3666  037F  0851               	btfss	status,2
  3667  0380  1D03               	goto	u1831
  3668  0381  2B83               	goto	u1830
  3669  0382  2B84               u1831:
  3670  0383                     	goto	l490
  3671  0383  2BA2               u1830:
  3672  0384                     	line	158
  3673                           	
  3674                           l1481:	
  3675  0384                     	movlw	01h
  3676  0384  3001               	addwf	(___fladd@b),f
  3677  0385  07BA               	movlw	0
  3678  0386  3000               	skipnc
  3679  0387  1803               movlw 1
  3680  0388  3001               	addwf	(___fladd@b+1),f
  3681  0389  07BB               	movlw	0
  3682  038A  3000               	skipnc
  3683  038B  1803               movlw 1
  3684  038C  3001               	addwf	(___fladd@b+2),f
  3685  038D  07BC               	movlw	0
  3686  038E  3000               	skipnc
  3687  038F  1803               movlw 1
  3688  0390  3001               	addwf	(___fladd@b+3),f
  3689  0391  07BD               	goto	l490
  3690  0392  2BA2               	line	159
  3691                           	
  3692                           l489:	
  3693  0393                     	line	160
  3694                           	goto	l490
  3695  0393  2BA2               	line	161
  3696                           	
  3697                           l488:	
  3698  0394                     	line	162
  3699                           	
  3700                           l1483:	
  3701  0394                     	movf	(___fladd@a),w
  3702  0394  083E               	subwf	(___fladd@b),f
  3703  0395  02BA               	movf	(___fladd@a+1),w
  3704  0396  083F               	skipc
  3705  0397  1C03               	incfsz	(___fladd@a+1),w
  3706  0398  0F3F               	subwf	(___fladd@b+1),f
  3707  0399  02BB               	movf	(___fladd@a+2),w
  3708  039A  0840               	skipc
  3709  039B  1C03               	incfsz	(___fladd@a+2),w
  3710  039C  0F40               	subwf	(___fladd@b+2),f
  3711  039D  02BC               	movf	(___fladd@a+3),w
  3712  039E  0841               	skipc
  3713  039F  1C03               	incfsz	(___fladd@a+3),w
  3714  03A0  0F41               	subwf	(___fladd@b+3),f
  3715  03A1  02BD               	line	163
  3716                           	
  3717                           l490:	
  3718  03A2                     	line	166
  3719                           	movf	(___fladd@b+3),w
  3720  03A2  083D               	iorwf	(___fladd@b+2),w
  3721  03A3  043C               	iorwf	(___fladd@b+1),w
  3722  03A4  043B               	iorwf	(___fladd@b),w
  3723  03A5  043A               	skipz
  3724  03A6  1D03               	goto	u1841
  3725  03A7  2BA9               	goto	u1840
  3726  03A8  2BAA               u1841:
  3727  03A9                     	goto	l1505
  3728  03A9  2BDB               u1840:
  3729  03AA                     	
  3730                           l1485:	
  3731  03AA                     	movf	((___fladd@grs)),w
  3732  03AA  0851               	btfss	status,2
  3733  03AB  1D03               	goto	u1851
  3734  03AC  2BAE               	goto	u1850
  3735  03AD  2BAF               u1851:
  3736  03AE                     	goto	l1505
  3737  03AE  2BDB               u1850:
  3738  03AF                     	line	167
  3739                           	
  3740                           l1487:	
  3741  03AF                     	movlw	0x0
  3742  03AF  3000               	movwf	(?___fladd+3)
  3743  03B0  00BD               	movlw	0x0
  3744  03B1  3000               	movwf	(?___fladd+2)
  3745  03B2  00BC               	movlw	0x0
  3746  03B3  3000               	movwf	(?___fladd+1)
  3747  03B4  00BB               	movlw	0x0
  3748  03B5  3000               	movwf	(?___fladd)
  3749  03B6  00BA               
  3750                           	goto	l482
  3751  03B7  2C64               	
  3752                           l1489:	
  3753  03B8                     	goto	l482
  3754  03B8  2C64               	line	168
  3755                           	
  3756                           l491:	
  3757  03B9                     	line	171
  3758                           	goto	l1505
  3759  03B9  2BDB               	
  3760                           l493:	
  3761  03BA                     	line	172
  3762                           	
  3763                           l1491:	
  3764  03BA                     	movlw	01h
  3765  03BA  3001               	movwf	(??___fladd+0)+0
  3766  03BB  00C2               u1865:
  3767  03BC                     	clrc
  3768  03BC  1003               	rlf	(___fladd@b),f
  3769  03BD  0DBA               	rlf	(___fladd@b+1),f
  3770  03BE  0DBB               	rlf	(___fladd@b+2),f
  3771  03BF  0DBC               	rlf	(___fladd@b+3),f
  3772  03C0  0DBD               	decfsz	(??___fladd+0)+0
  3773  03C1  0BC2               	goto	u1865
  3774  03C2  2BBC               	line	173
  3775                           	
  3776                           l1493:	
  3777  03C3                     	btfss	(___fladd@grs),(7)&7
  3778  03C3  1FD1               	goto	u1871
  3779  03C4  2BC6               	goto	u1870
  3780  03C5  2BC7               u1871:
  3781  03C6                     	goto	l494
  3782  03C6  2BC8               u1870:
  3783  03C7                     	line	174
  3784                           	
  3785                           l1495:	
  3786  03C7                     	bsf	(___fladd@b)+(0/8),(0)&7
  3787  03C7  143A               	line	175
  3788                           	
  3789                           l494:	
  3790  03C8                     	line	176
  3791                           	btfss	(___fladd@grs),(0)&7
  3792  03C8  1C51               	goto	u1881
  3793  03C9  2BCB               	goto	u1880
  3794  03CA  2BCC               u1881:
  3795  03CB                     	goto	l1499
  3796  03CB  2BCF               u1880:
  3797  03CC                     	line	177
  3798                           	
  3799                           l1497:	
  3800  03CC                     	setc
  3801  03CC  1403               	rlf	(___fladd@grs),f
  3802  03CD  0DD1               	line	178
  3803                           	goto	l1501
  3804  03CE  2BD2               	line	179
  3805                           	
  3806                           l495:	
  3807  03CF                     	line	180
  3808                           	
  3809                           l1499:	
  3810  03CF                     	clrc
  3811  03CF  1003               	rlf	(___fladd@grs),f
  3812  03D0  0DD1               
  3813                           	goto	l1501
  3814  03D1  2BD2               	line	181
  3815                           	
  3816                           l496:	
  3817  03D2                     	line	182
  3818                           	
  3819                           l1501:	
  3820  03D2                     	movf	((___fladd@bexp)),w
  3821  03D2  0850               	btfsc	status,2
  3822  03D3  1903               	goto	u1891
  3823  03D4  2BD6               	goto	u1890
  3824  03D5  2BD7               u1891:
  3825  03D6                     	goto	l1505
  3826  03D6  2BDB               u1890:
  3827  03D7                     	line	183
  3828                           	
  3829                           l1503:	
  3830  03D7                     	movlw	01h
  3831  03D7  3001               	subwf	(___fladd@bexp),f
  3832  03D8  02D0               	goto	l1505
  3833  03D9  2BDB               	line	184
  3834                           	
  3835                           l497:	
  3836  03DA                     	goto	l1505
  3837  03DA  2BDB               	line	185
  3838                           	
  3839                           l492:	
  3840  03DB                     	line	171
  3841                           	
  3842                           l1505:	
  3843  03DB                     	btfss	(___fladd@b+2),(23)&7
  3844  03DB  1FBC               	goto	u1901
  3845  03DC  2BDE               	goto	u1900
  3846  03DD  2BDF               u1901:
  3847  03DE                     	goto	l1491
  3848  03DE  2BBA               u1900:
  3849  03DF                     	goto	l1507
  3850  03DF  2BE1               	
  3851                           l498:	
  3852  03E0                     	goto	l1507
  3853  03E0  2BE1               	line	186
  3854                           	
  3855                           l487:	
  3856  03E1                     	line	192
  3857                           	
  3858                           l1507:	
  3859  03E1                     	clrf	(___fladd@aexp)
  3860  03E1  01CF               	line	193
  3861                           	
  3862                           l1509:	
  3863  03E2                     	btfss	(___fladd@grs),(7)&7
  3864  03E2  1FD1               	goto	u1911
  3865  03E3  2BE5               	goto	u1910
  3866  03E4  2BE6               u1911:
  3867  03E5                     	goto	l1517
  3868  03E5  2BF8               u1910:
  3869  03E6                     	line	194
  3870                           	
  3871                           l1511:	
  3872  03E6                     	movf	(___fladd@grs),w
  3873  03E6  0851               	andlw	07Fh
  3874  03E7  397F               	btfsc	status,2
  3875  03E8  1903               	goto	u1921
  3876  03E9  2BEB               	goto	u1920
  3877  03EA  2BEC               u1921:
  3878  03EB                     	goto	l500
  3879  03EB  2BEF               u1920:
  3880  03EC                     	line	195
  3881                           	
  3882                           l1513:	
  3883  03EC                     	clrf	(___fladd@aexp)
  3884  03EC  01CF               	incf	(___fladd@aexp),f
  3885  03ED  0ACF               	line	196
  3886                           	goto	l1517
  3887  03EE  2BF8               	line	197
  3888                           	
  3889                           l500:	
  3890  03EF                     	line	198
  3891                           	btfss	(___fladd@b),(0)&7
  3892  03EF  1C3A               	goto	u1931
  3893  03F0  2BF2               	goto	u1930
  3894  03F1  2BF3               u1931:
  3895  03F2                     	goto	l1517
  3896  03F2  2BF8               u1930:
  3897  03F3                     	line	199
  3898                           	
  3899                           l1515:	
  3900  03F3                     	clrf	(___fladd@aexp)
  3901  03F3  01CF               	incf	(___fladd@aexp),f
  3902  03F4  0ACF               	goto	l1517
  3903  03F5  2BF8               	line	200
  3904                           	
  3905                           l502:	
  3906  03F6                     	goto	l1517
  3907  03F6  2BF8               	line	201
  3908                           	
  3909                           l501:	
  3910  03F7                     	goto	l1517
  3911  03F7  2BF8               	line	202
  3912                           	
  3913                           l499:	
  3914  03F8                     	line	203
  3915                           	
  3916                           l1517:	
  3917  03F8                     	movf	((___fladd@aexp)),w
  3918  03F8  084F               	btfsc	status,2
  3919  03F9  1903               	goto	u1941
  3920  03FA  2BFC               	goto	u1940
  3921  03FB  2BFD               u1941:
  3922  03FC                     	goto	l503
  3923  03FC  2C33               u1940:
  3924  03FD                     	line	204
  3925                           	
  3926                           l1519:	
  3927  03FD                     	movlw	01h
  3928  03FD  3001               	addwf	(___fladd@b),f
  3929  03FE  07BA               	movlw	0
  3930  03FF  3000               	skipnc
  3931  0400  1803               movlw 1
  3932  0401  3001               	addwf	(___fladd@b+1),f
  3933  0402  07BB               	movlw	0
  3934  0403  3000               	skipnc
  3935  0404  1803               movlw 1
  3936  0405  3001               	addwf	(___fladd@b+2),f
  3937  0406  07BC               	movlw	0
  3938  0407  3000               	skipnc
  3939  0408  1803               movlw 1
  3940  0409  3001               	addwf	(___fladd@b+3),f
  3941  040A  07BD               	line	205
  3942                           	
  3943                           l1521:	
  3944  040B                     	btfss	(___fladd@b+3),(24)&7
  3945  040B  1C3D               	goto	u1951
  3946  040C  2C0E               	goto	u1950
  3947  040D  2C0F               u1951:
  3948  040E                     	goto	l503
  3949  040E  2C33               u1950:
  3950  040F                     	line	206
  3951                           	
  3952                           l1523:	
  3953  040F                     	movf	(___fladd@b),w
  3954  040F  083A               	movwf	(??___fladd+0)+0
  3955  0410  00C2               	movf	(___fladd@b+1),w
  3956  0411  083B               	movwf	((??___fladd+0)+0+1)
  3957  0412  00C3               	movf	(___fladd@b+2),w
  3958  0413  083C               	movwf	((??___fladd+0)+0+2)
  3959  0414  00C4               	movf	(___fladd@b+3),w
  3960  0415  083D               	movwf	((??___fladd+0)+0+3)
  3961  0416  00C5               	movlw	01h
  3962  0417  3001               	movwf	(??___fladd+4)+0
  3963  0418  00C6               u1965:
  3964  0419                     	rlf	(??___fladd+0)+3,w
  3965  0419  0D45               	rrf	(??___fladd+0)+3,f
  3966  041A  0CC5               	rrf	(??___fladd+0)+2,f
  3967  041B  0CC4               	rrf	(??___fladd+0)+1,f
  3968  041C  0CC3               	rrf	(??___fladd+0)+0,f
  3969  041D  0CC2               u1960:
  3970  041E                     	decfsz	(??___fladd+4)+0,f
  3971  041E  0BC6               	goto	u1965
  3972  041F  2C19               	movf	3+(??___fladd+0)+0,w
  3973  0420  0845               	movwf	(___fladd@b+3)
  3974  0421  00BD               	movf	2+(??___fladd+0)+0,w
  3975  0422  0844               	movwf	(___fladd@b+2)
  3976  0423  00BC               	movf	1+(??___fladd+0)+0,w
  3977  0424  0843               	movwf	(___fladd@b+1)
  3978  0425  00BB               	movf	0+(??___fladd+0)+0,w
  3979  0426  0842               	movwf	(___fladd@b)
  3980  0427  00BA               
  3981                           	line	207
  3982                           		incf	((___fladd@bexp)),w
  3983  0428  0A50               	btfsc	status,2
  3984  0429  1903               	goto	u1971
  3985  042A  2C2C               	goto	u1970
  3986  042B  2C2D               u1971:
  3987  042C                     	goto	l503
  3988  042C  2C33               u1970:
  3989  042D                     	line	208
  3990                           	
  3991                           l1525:	
  3992  042D                     	movlw	low(01h)
  3993  042D  3001               	movwf	(??___fladd+0)+0
  3994  042E  00C2               	movf	(??___fladd+0)+0,w
  3995  042F  0842               	addwf	(___fladd@bexp),f
  3996  0430  07D0               	goto	l503
  3997  0431  2C33               	line	209
  3998                           	
  3999                           l505:	
  4000  0432                     	goto	l503
  4001  0432  2C33               	line	210
  4002                           	
  4003                           l504:	
  4004  0433                     	line	211
  4005                           	
  4006                           l503:	
  4007  0433                     	line	215
  4008                           		incf	((___fladd@bexp)),w
  4009  0433  0A50               	btfsc	status,2
  4010  0434  1903               	goto	u1981
  4011  0435  2C37               	goto	u1980
  4012  0436  2C38               u1981:
  4013  0437                     	goto	l1529
  4014  0437  2C3E               u1980:
  4015  0438                     	
  4016                           l1527:	
  4017  0438                     	movf	((___fladd@bexp)),w
  4018  0438  0850               	btfss	status,2
  4019  0439  1D03               	goto	u1991
  4020  043A  2C3C               	goto	u1990
  4021  043B  2C3D               u1991:
  4022  043C                     	goto	l1535
  4023  043C  2C4E               u1990:
  4024  043D                     	goto	l1529
  4025  043D  2C3E               	
  4026                           l508:	
  4027  043E                     	line	216
  4028                           	
  4029                           l1529:	
  4030  043E                     	movlw	high highword(0)
  4031  043E  3000               	movwf	(___fladd@b+3)
  4032  043F  00BD               	movlw	low highword(0)
  4033  0440  3000               	movwf	(___fladd@b+2)
  4034  0441  00BC               	movlw	high(0)
  4035  0442  3000               	movwf	(___fladd@b+1)
  4036  0443  00BB               	movlw	low(0)
  4037  0444  3000               	movwf	(___fladd@b)
  4038  0445  00BA               
  4039                           	line	218
  4040                           	
  4041                           l1531:	
  4042  0446                     	movf	((___fladd@bexp)),w
  4043  0446  0850               	btfss	status,2
  4044  0447  1D03               	goto	u2001
  4045  0448  2C4A               	goto	u2000
  4046  0449  2C4B               u2001:
  4047  044A                     	goto	l1535
  4048  044A  2C4E               u2000:
  4049  044B                     	line	219
  4050                           	
  4051                           l1533:	
  4052  044B                     	clrf	(___fladd@signs)
  4053  044B  01CE               	goto	l1535
  4054  044C  2C4E               	line	220
  4055                           	
  4056                           l509:	
  4057  044D                     	goto	l1535
  4058  044D  2C4E               	line	221
  4059                           	
  4060                           l506:	
  4061  044E                     	line	225
  4062                           	
  4063                           l1535:	
  4064  044E                     	btfss	(___fladd@bexp),(0)&7
  4065  044E  1C50               	goto	u2011
  4066  044F  2C51               	goto	u2010
  4067  0450  2C52               u2011:
  4068  0451                     	goto	l1539
  4069  0451  2C54               u2010:
  4070  0452                     	line	226
  4071                           	
  4072                           l1537:	
  4073  0452                     	bsf	0+(___fladd@b)+02h+(7/8),(7)&7
  4074  0452  17BC               	line	227
  4075                           	goto	l511
  4076  0453  2C58               	line	229
  4077                           	
  4078                           l510:	
  4079  0454                     	line	230
  4080                           	
  4081                           l1539:	
  4082  0454                     	movlw	low(07Fh)
  4083  0454  307F               	movwf	(??___fladd+0)+0
  4084  0455  00C2               	movf	(??___fladd+0)+0,w
  4085  0456  0842               	andwf	0+(___fladd@b)+02h,f
  4086  0457  05BC               	line	231
  4087                           	
  4088                           l511:	
  4089  0458                     	line	232
  4090                           	movf	(___fladd@bexp),w
  4091  0458  0850               	movwf	(??___fladd+0)+0
  4092  0459  00C2               	clrc
  4093  045A  1003               	rrf	(??___fladd+0)+0,w
  4094  045B  0C42               	movwf	(??___fladd+1)+0
  4095  045C  00C3               	movf	(??___fladd+1)+0,w
  4096  045D  0843               	movwf	0+(___fladd@b)+03h
  4097  045E  00BD               	line	233
  4098                           	
  4099                           l1541:	
  4100  045F                     	btfss	(___fladd@signs),(7)&7
  4101  045F  1FCE               	goto	u2021
  4102  0460  2C62               	goto	u2020
  4103  0461  2C63               u2021:
  4104  0462                     	goto	l512
  4105  0462  2C64               u2020:
  4106  0463                     	line	234
  4107                           	
  4108                           l1543:	
  4109  0463                     	bsf	0+(___fladd@b)+03h+(7/8),(7)&7
  4110  0463  17BD               	line	235
  4111                           	
  4112                           l512:	
  4113  0464                     	line	236
  4114                           	line	237
  4115                           	
  4116                           l482:	
  4117  0464                     	return
  4118  0464  0008               	opt stack 0
  4119                           GLOBAL	__end_of___fladd
  4120                           	__end_of___fladd:
  4121  0465                     	signat	___fladd,8316
  4122                           	global	___flge
  4123                           
  4124 ;; *************** function ___flge *****************
  4125 ;; Defined at:
  4126 ;;		line 4 in file "C:\Program Files (x86)\Microchip\xc8\v2.00\pic\sources\c90\common\flge.c"
  4127 ;; Parameters:    Size  Location     Type
  4128 ;;  ff1             4   50[BANK0 ] unsigned char 
  4129 ;;  ff2             4   54[BANK0 ] unsigned char 
  4130 ;; Auto vars:     Size  Location     Type
  4131 ;;		None
  4132 ;; Return value:  Size  Location     Type
  4133 ;;		None               void
  4134 ;; Registers used:
  4135 ;;		wreg, status,2, status,0
  4136 ;; Tracked objects:
  4137 ;;		On entry : 0/0
  4138 ;;		On exit  : 0/0
  4139 ;;		Unchanged: 0/0
  4140 ;; Data sizes:     COMMON   BANK0   BANK1   BANK3   BANK2
  4141 ;;      Params:         0       8       0       0       0
  4142 ;;      Locals:         0       0       0       0       0
  4143 ;;      Temps:          0       8       0       0       0
  4144 ;;      Totals:         0      16       0       0       0
  4145 ;;Total ram usage:       16 bytes
  4146 ;; Hardware stack levels used:    1
  4147 ;; This function calls:
  4148 ;;		Nothing
  4149 ;; This function is called by:
  4150 ;;		_change_heat
  4151 ;;		_check_heat
  4152 ;; This function uses a non-reentrant model
  4153 ;;
  4154                           psect	text8,local,class=CODE,delta=2,merge=1,group=1
  4155                           	file	"C:\Program Files (x86)\Microchip\xc8\v2.00\pic\sources\c90\common\flge.c"
  4156                           	line	4
  4157                           global __ptext8
  4158                           __ptext8:	;psect for function ___flge
  4159  0B34                     psect	text8
  4160                           	file	"C:\Program Files (x86)\Microchip\xc8\v2.00\pic\sources\c90\common\flge.c"
  4161                           	line	4
  4162                           	global	__size_of___flge
  4163                           	__size_of___flge	equ	__end_of___flge-___flge
  4164  00C3                     	
  4165                           ___flge:	
  4166  0B34                     ;incstack = 0
  4167                           	opt	stack 5
  4168                           ; Regs used in ___flge: [wreg+status,2+status,0]
  4169                           	line	7
  4170                           	
  4171                           l1557:	
  4172  0B34                     	movlw	0
  4173  0B34  3000               	bcf	status, 5	;RP0=0, select bank0
  4174  0B35  1283               	bcf	status, 6	;RP1=0, select bank0
  4175  0B36  1303               	andwf	(___flge@ff1),w
  4176  0B37  0552               	movwf	(??___flge+0)+0
  4177  0B38  00DA               	movlw	0
  4178  0B39  3000               	andwf	(___flge@ff1+1),w
  4179  0B3A  0553               	movwf	((??___flge+0)+0+1)
  4180  0B3B  00DB               	movlw	080h
  4181  0B3C  3080               	andwf	(___flge@ff1+2),w
  4182  0B3D  0554               	movwf	((??___flge+0)+0+2)
  4183  0B3E  00DC               	movlw	07Fh
  4184  0B3F  307F               	andwf	(___flge@ff1+3),w
  4185  0B40  0555               	movwf	((??___flge+0)+0+3)
  4186  0B41  00DD               	movf	3+(??___flge+0)+0,w
  4187  0B42  085D               	iorwf	2+(??___flge+0)+0,w
  4188  0B43  045C               	iorwf	1+(??___flge+0)+0,w
  4189  0B44  045B               	iorwf	0+(??___flge+0)+0,w
  4190  0B45  045A               	skipz
  4191  0B46  1D03               	goto	u2061
  4192  0B47  2B49               	goto	u2060
  4193  0B48  2B4A               u2061:
  4194  0B49                     	goto	l350
  4195  0B49  2B52               u2060:
  4196  0B4A                     	line	8
  4197                           	
  4198                           l1559:	
  4199  0B4A                     	movlw	high highword(0)
  4200  0B4A  3000               	movwf	(___flge@ff1+3)
  4201  0B4B  00D5               	movlw	low highword(0)
  4202  0B4C  3000               	movwf	(___flge@ff1+2)
  4203  0B4D  00D4               	movlw	high(0)
  4204  0B4E  3000               	movwf	(___flge@ff1+1)
  4205  0B4F  00D3               	movlw	low(0)
  4206  0B50  3000               	movwf	(___flge@ff1)
  4207  0B51  00D2               
  4208                           	
  4209                           l350:	
  4210  0B52                     	line	9
  4211                           	movlw	0
  4212  0B52  3000               	andwf	(___flge@ff2),w
  4213  0B53  0556               	movwf	(??___flge+0)+0
  4214  0B54  00DA               	movlw	0
  4215  0B55  3000               	andwf	(___flge@ff2+1),w
  4216  0B56  0557               	movwf	((??___flge+0)+0+1)
  4217  0B57  00DB               	movlw	080h
  4218  0B58  3080               	andwf	(___flge@ff2+2),w
  4219  0B59  0558               	movwf	((??___flge+0)+0+2)
  4220  0B5A  00DC               	movlw	07Fh
  4221  0B5B  307F               	andwf	(___flge@ff2+3),w
  4222  0B5C  0559               	movwf	((??___flge+0)+0+3)
  4223  0B5D  00DD               	movf	3+(??___flge+0)+0,w
  4224  0B5E  085D               	iorwf	2+(??___flge+0)+0,w
  4225  0B5F  045C               	iorwf	1+(??___flge+0)+0,w
  4226  0B60  045B               	iorwf	0+(??___flge+0)+0,w
  4227  0B61  045A               	skipz
  4228  0B62  1D03               	goto	u2071
  4229  0B63  2B65               	goto	u2070
  4230  0B64  2B66               u2071:
  4231  0B65                     	goto	l1563
  4232  0B65  2B6F               u2070:
  4233  0B66                     	line	10
  4234                           	
  4235                           l1561:	
  4236  0B66                     	movlw	high highword(0)
  4237  0B66  3000               	movwf	(___flge@ff2+3)
  4238  0B67  00D9               	movlw	low highword(0)
  4239  0B68  3000               	movwf	(___flge@ff2+2)
  4240  0B69  00D8               	movlw	high(0)
  4241  0B6A  3000               	movwf	(___flge@ff2+1)
  4242  0B6B  00D7               	movlw	low(0)
  4243  0B6C  3000               	movwf	(___flge@ff2)
  4244  0B6D  00D6               
  4245                           	goto	l1563
  4246  0B6E  2B6F               	
  4247                           l351:	
  4248  0B6F                     	line	12
  4249                           	
  4250                           l1563:	
  4251  0B6F                     	btfss	(___flge@ff1+3),(31)&7
  4252  0B6F  1FD5               	goto	u2081
  4253  0B70  2B72               	goto	u2080
  4254  0B71  2B73               u2081:
  4255  0B72                     	goto	l1567
  4256  0B72  2BA5               u2080:
  4257  0B73                     	line	13
  4258                           	
  4259                           l1565:	
  4260  0B73                     	movlw	0
  4261  0B73  3000               	movwf	((??___flge+0)+0)
  4262  0B74  00DA               	movlw	0
  4263  0B75  3000               	movwf	((??___flge+0)+0+1)
  4264  0B76  00DB               	movlw	0
  4265  0B77  3000               	movwf	((??___flge+0)+0+2)
  4266  0B78  00DC               	movlw	080h
  4267  0B79  3080               	movwf	((??___flge+0)+0+3)
  4268  0B7A  00DD               	comf	(___flge@ff1),w
  4269  0B7B  0952               	movwf	(??___flge+4)+0
  4270  0B7C  00DE               	comf	(___flge@ff1+1),w
  4271  0B7D  0953               	movwf	((??___flge+4)+0+1)
  4272  0B7E  00DF               	comf	(___flge@ff1+2),w
  4273  0B7F  0954               	movwf	((??___flge+4)+0+2)
  4274  0B80  00E0               	comf	(___flge@ff1+3),w
  4275  0B81  0955               	movwf	((??___flge+4)+0+3)
  4276  0B82  00E1               	incf	(??___flge+4)+0,f
  4277  0B83  0ADE               	skipnz
  4278  0B84  1903               	incf	((??___flge+4)+0+1),f
  4279  0B85  0ADF               	skipnz
  4280  0B86  1903               	incf	((??___flge+4)+0+2),f
  4281  0B87  0AE0               	skipnz
  4282  0B88  1903               	incf	((??___flge+4)+0+3),f
  4283  0B89  0AE1               	movf	0+(??___flge+4)+0,w
  4284  0B8A  085E               	addwf	(??___flge+0)+0,f
  4285  0B8B  07DA               	movf	1+(??___flge+4)+0,w
  4286  0B8C  085F               	skipnc
  4287  0B8D  1803               	incfsz	1+(??___flge+4)+0,w
  4288  0B8E  0F5F               	goto	u2090
  4289  0B8F  2B91               	goto	u2091
  4290  0B90  2B92               u2090:
  4291  0B91                     	addwf	(??___flge+0)+1,f
  4292  0B91  07DB               u2091:
  4293  0B92                     	movf	2+(??___flge+4)+0,w
  4294  0B92  0860               	skipnc
  4295  0B93  1803               	incfsz	2+(??___flge+4)+0,w
  4296  0B94  0F60               	goto	u2092
  4297  0B95  2B97               	goto	u2093
  4298  0B96  2B98               u2092:
  4299  0B97                     	addwf	(??___flge+0)+2,f
  4300  0B97  07DC               u2093:
  4301  0B98                     	movf	3+(??___flge+4)+0,w
  4302  0B98  0861               	skipnc
  4303  0B99  1803               	incf	3+(??___flge+4)+0,w
  4304  0B9A  0A61               	addwf	(??___flge+0)+3,f
  4305  0B9B  07DD               	movf	3+(??___flge+0)+0,w
  4306  0B9C  085D               	movwf	(___flge@ff1+3)
  4307  0B9D  00D5               	movf	2+(??___flge+0)+0,w
  4308  0B9E  085C               	movwf	(___flge@ff1+2)
  4309  0B9F  00D4               	movf	1+(??___flge+0)+0,w
  4310  0BA0  085B               	movwf	(___flge@ff1+1)
  4311  0BA1  00D3               	movf	0+(??___flge+0)+0,w
  4312  0BA2  085A               	movwf	(___flge@ff1)
  4313  0BA3  00D2               
  4314                           	goto	l1567
  4315  0BA4  2BA5               	
  4316                           l352:	
  4317  0BA5                     	line	14
  4318                           	
  4319                           l1567:	
  4320  0BA5                     	btfss	(___flge@ff2+3),(31)&7
  4321  0BA5  1FD9               	goto	u2101
  4322  0BA6  2BA8               	goto	u2100
  4323  0BA7  2BA9               u2101:
  4324  0BA8                     	goto	l1571
  4325  0BA8  2BDB               u2100:
  4326  0BA9                     	line	15
  4327                           	
  4328                           l1569:	
  4329  0BA9                     	movlw	0
  4330  0BA9  3000               	movwf	((??___flge+0)+0)
  4331  0BAA  00DA               	movlw	0
  4332  0BAB  3000               	movwf	((??___flge+0)+0+1)
  4333  0BAC  00DB               	movlw	0
  4334  0BAD  3000               	movwf	((??___flge+0)+0+2)
  4335  0BAE  00DC               	movlw	080h
  4336  0BAF  3080               	movwf	((??___flge+0)+0+3)
  4337  0BB0  00DD               	comf	(___flge@ff2),w
  4338  0BB1  0956               	movwf	(??___flge+4)+0
  4339  0BB2  00DE               	comf	(___flge@ff2+1),w
  4340  0BB3  0957               	movwf	((??___flge+4)+0+1)
  4341  0BB4  00DF               	comf	(___flge@ff2+2),w
  4342  0BB5  0958               	movwf	((??___flge+4)+0+2)
  4343  0BB6  00E0               	comf	(___flge@ff2+3),w
  4344  0BB7  0959               	movwf	((??___flge+4)+0+3)
  4345  0BB8  00E1               	incf	(??___flge+4)+0,f
  4346  0BB9  0ADE               	skipnz
  4347  0BBA  1903               	incf	((??___flge+4)+0+1),f
  4348  0BBB  0ADF               	skipnz
  4349  0BBC  1903               	incf	((??___flge+4)+0+2),f
  4350  0BBD  0AE0               	skipnz
  4351  0BBE  1903               	incf	((??___flge+4)+0+3),f
  4352  0BBF  0AE1               	movf	0+(??___flge+4)+0,w
  4353  0BC0  085E               	addwf	(??___flge+0)+0,f
  4354  0BC1  07DA               	movf	1+(??___flge+4)+0,w
  4355  0BC2  085F               	skipnc
  4356  0BC3  1803               	incfsz	1+(??___flge+4)+0,w
  4357  0BC4  0F5F               	goto	u2110
  4358  0BC5  2BC7               	goto	u2111
  4359  0BC6  2BC8               u2110:
  4360  0BC7                     	addwf	(??___flge+0)+1,f
  4361  0BC7  07DB               u2111:
  4362  0BC8                     	movf	2+(??___flge+4)+0,w
  4363  0BC8  0860               	skipnc
  4364  0BC9  1803               	incfsz	2+(??___flge+4)+0,w
  4365  0BCA  0F60               	goto	u2112
  4366  0BCB  2BCD               	goto	u2113
  4367  0BCC  2BCE               u2112:
  4368  0BCD                     	addwf	(??___flge+0)+2,f
  4369  0BCD  07DC               u2113:
  4370  0BCE                     	movf	3+(??___flge+4)+0,w
  4371  0BCE  0861               	skipnc
  4372  0BCF  1803               	incf	3+(??___flge+4)+0,w
  4373  0BD0  0A61               	addwf	(??___flge+0)+3,f
  4374  0BD1  07DD               	movf	3+(??___flge+0)+0,w
  4375  0BD2  085D               	movwf	(___flge@ff2+3)
  4376  0BD3  00D9               	movf	2+(??___flge+0)+0,w
  4377  0BD4  085C               	movwf	(___flge@ff2+2)
  4378  0BD5  00D8               	movf	1+(??___flge+0)+0,w
  4379  0BD6  085B               	movwf	(___flge@ff2+1)
  4380  0BD7  00D7               	movf	0+(??___flge+0)+0,w
  4381  0BD8  085A               	movwf	(___flge@ff2)
  4382  0BD9  00D6               
  4383                           	goto	l1571
  4384  0BDA  2BDB               	
  4385                           l353:	
  4386  0BDB                     	line	16
  4387                           	
  4388                           l1571:	
  4389  0BDB                     	movlw	080h
  4390  0BDB  3080               	xorwf	(___flge@ff1+3),f
  4391  0BDC  06D5               	line	17
  4392                           	
  4393                           l1573:	
  4394  0BDD                     	movlw	080h
  4395  0BDD  3080               	xorwf	(___flge@ff2+3),f
  4396  0BDE  06D9               	line	18
  4397                           	
  4398                           l1575:	
  4399  0BDF                     	movf	(___flge@ff2+3),w
  4400  0BDF  0859               	subwf	(___flge@ff1+3),w
  4401  0BE0  0255               	skipz
  4402  0BE1  1D03               	goto	u2125
  4403  0BE2  2BED               	movf	(___flge@ff2+2),w
  4404  0BE3  0858               	subwf	(___flge@ff1+2),w
  4405  0BE4  0254               	skipz
  4406  0BE5  1D03               	goto	u2125
  4407  0BE6  2BED               	movf	(___flge@ff2+1),w
  4408  0BE7  0857               	subwf	(___flge@ff1+1),w
  4409  0BE8  0253               	skipz
  4410  0BE9  1D03               	goto	u2125
  4411  0BEA  2BED               	movf	(___flge@ff2),w
  4412  0BEB  0856               	subwf	(___flge@ff1),w
  4413  0BEC  0252               u2125:
  4414  0BED                     	skipnc
  4415  0BED  1803               	goto	u2121
  4416  0BEE  2BF0               	goto	u2120
  4417  0BEF  2BF1               u2121:
  4418  0BF0                     	goto	l1579
  4419  0BF0  2BF3               u2120:
  4420  0BF1                     	
  4421                           l1577:	
  4422  0BF1                     	clrc
  4423  0BF1  1003               	
  4424                           	goto	l354
  4425  0BF2  2BF6               	
  4426                           l1347:	
  4427  0BF3                     	
  4428                           l1579:	
  4429  0BF3                     	setc
  4430  0BF3  1403               	
  4431                           	goto	l354
  4432  0BF4  2BF6               	
  4433                           l1349:	
  4434  0BF5                     	goto	l354
  4435  0BF5  2BF6               	
  4436                           l1581:	
  4437  0BF6                     	line	19
  4438                           	
  4439                           l354:	
  4440  0BF6                     	return
  4441  0BF6  0008               	opt stack 0
  4442                           GLOBAL	__end_of___flge
  4443                           	__end_of___flge:
  4444  0BF7                     	signat	___flge,8312
  4445                           	global	___xxtofl
  4446                           
  4447 ;; *************** function ___xxtofl *****************
  4448 ;; Defined at:
  4449 ;;		line 10 in file "C:\Program Files (x86)\Microchip\xc8\v2.00\pic\sources\c90\common\xxtofl.c"
  4450 ;; Parameters:    Size  Location     Type
  4451 ;;  sign            1    wreg     unsigned char 
  4452 ;;  val             4    0[COMMON] long 
  4453 ;; Auto vars:     Size  Location     Type
  4454 ;;  sign            1    8[COMMON] unsigned char 
  4455 ;;  arg             4   10[COMMON] unsigned long 
  4456 ;;  exp             1    9[COMMON] unsigned char 
  4457 ;; Return value:  Size  Location     Type
  4458 ;;                  4    0[COMMON] unsigned char 
  4459 ;; Registers used:
  4460 ;;		wreg, status,2, status,0
  4461 ;; Tracked objects:
  4462 ;;		On entry : 0/0
  4463 ;;		On exit  : 0/0
  4464 ;;		Unchanged: 0/0
  4465 ;; Data sizes:     COMMON   BANK0   BANK1   BANK3   BANK2
  4466 ;;      Params:         4       0       0       0       0
  4467 ;;      Locals:         6       0       0       0       0
  4468 ;;      Temps:          4       0       0       0       0
  4469 ;;      Totals:        14       0       0       0       0
  4470 ;;Total ram usage:       14 bytes
  4471 ;; Hardware stack levels used:    1
  4472 ;; This function calls:
  4473 ;;		Nothing
  4474 ;; This function is called by:
  4475 ;;		_watch_heat
  4476 ;; This function uses a non-reentrant model
  4477 ;;
  4478                           psect	text9,local,class=CODE,delta=2,merge=1,group=1
  4479                           	file	"C:\Program Files (x86)\Microchip\xc8\v2.00\pic\sources\c90\common\xxtofl.c"
  4480                           	line	10
  4481                           global __ptext9
  4482                           __ptext9:	;psect for function ___xxtofl
  4483  0A72                     psect	text9
  4484                           	file	"C:\Program Files (x86)\Microchip\xc8\v2.00\pic\sources\c90\common\xxtofl.c"
  4485                           	line	10
  4486                           	global	__size_of___xxtofl
  4487                           	__size_of___xxtofl	equ	__end_of___xxtofl-___xxtofl
  4488  00C2                     	
  4489                           ___xxtofl:	
  4490  0A72                     ;incstack = 0
  4491                           	opt	stack 6
  4492                           ; Regs used in ___xxtofl: [wreg+status,2+status,0]
  4493                           ;___xxtofl@sign stored from wreg
  4494                           	movwf	(___xxtofl@sign)
  4495  0A72  00F8               	line	15
  4496                           	
  4497                           l1933:	
  4498  0A73                     	movf	((___xxtofl@sign)),w
  4499  0A73  0878               	btfsc	status,2
  4500  0A74  1903               	goto	u2951
  4501  0A75  2A77               	goto	u2950
  4502  0A76  2A78               u2951:
  4503  0A77                     	goto	l1939
  4504  0A77  2A8C               u2950:
  4505  0A78                     	
  4506                           l1935:	
  4507  0A78                     	btfss	(___xxtofl@val+3),7
  4508  0A78  1FF3               	goto	u2961
  4509  0A79  2A7B               	goto	u2960
  4510  0A7A  2A7C               u2961:
  4511  0A7B                     	goto	l1939
  4512  0A7B  2A8C               u2960:
  4513  0A7C                     	line	16
  4514                           	
  4515                           l1937:	
  4516  0A7C                     	comf	(___xxtofl@val)+0,w
  4517  0A7C  0970               	movwf	(___xxtofl@arg)
  4518  0A7D  00FA               	comf	(___xxtofl@val)+1,w
  4519  0A7E  0971               	movwf	(___xxtofl@arg+1)
  4520  0A7F  00FB               	comf	(___xxtofl@val)+2,w
  4521  0A80  0972               	movwf	(___xxtofl@arg+2)
  4522  0A81  00FC               	comf	(___xxtofl@val)+3,w
  4523  0A82  0973               	movwf	(___xxtofl@arg+3)
  4524  0A83  00FD               	incf	(___xxtofl@arg),f
  4525  0A84  0AFA               	skipnz
  4526  0A85  1903               	incf	(___xxtofl@arg+1),f
  4527  0A86  0AFB               	skipnz
  4528  0A87  1903               	incf	(___xxtofl@arg+2),f
  4529  0A88  0AFC               	skipnz
  4530  0A89  1903               	incf	(___xxtofl@arg+3),f
  4531  0A8A  0AFD               	line	17
  4532                           	goto	l584
  4533  0A8B  2A94               	line	18
  4534                           	
  4535                           l583:	
  4536  0A8C                     	line	19
  4537                           	
  4538                           l1939:	
  4539  0A8C                     	movf	(___xxtofl@val+3),w
  4540  0A8C  0873               	movwf	(___xxtofl@arg+3)
  4541  0A8D  00FD               	movf	(___xxtofl@val+2),w
  4542  0A8E  0872               	movwf	(___xxtofl@arg+2)
  4543  0A8F  00FC               	movf	(___xxtofl@val+1),w
  4544  0A90  0871               	movwf	(___xxtofl@arg+1)
  4545  0A91  00FB               	movf	(___xxtofl@val),w
  4546  0A92  0870               	movwf	(___xxtofl@arg)
  4547  0A93  00FA               
  4548                           	line	20
  4549                           	
  4550                           l584:	
  4551  0A94                     	line	21
  4552                           	movf	(___xxtofl@val+3),w
  4553  0A94  0873               	iorwf	(___xxtofl@val+2),w
  4554  0A95  0472               	iorwf	(___xxtofl@val+1),w
  4555  0A96  0471               	iorwf	(___xxtofl@val),w
  4556  0A97  0470               	skipz
  4557  0A98  1D03               	goto	u2971
  4558  0A99  2A9B               	goto	u2970
  4559  0A9A  2A9C               u2971:
  4560  0A9B                     	goto	l1945
  4561  0A9B  2AA6               u2970:
  4562  0A9C                     	line	22
  4563                           	
  4564                           l1941:	
  4565  0A9C                     	movlw	0x0
  4566  0A9C  3000               	movwf	(?___xxtofl+3)
  4567  0A9D  00F3               	movlw	0x0
  4568  0A9E  3000               	movwf	(?___xxtofl+2)
  4569  0A9F  00F2               	movlw	0x0
  4570  0AA0  3000               	movwf	(?___xxtofl+1)
  4571  0AA1  00F1               	movlw	0x0
  4572  0AA2  3000               	movwf	(?___xxtofl)
  4573  0AA3  00F0               
  4574                           	goto	l586
  4575  0AA4  2B33               	
  4576                           l1943:	
  4577  0AA5                     	goto	l586
  4578  0AA5  2B33               	
  4579                           l585:	
  4580  0AA6                     	line	23
  4581                           	
  4582                           l1945:	
  4583  0AA6                     	movlw	low(096h)
  4584  0AA6  3096               	movwf	(??___xxtofl+0)+0
  4585  0AA7  00F4               	movf	(??___xxtofl+0)+0,w
  4586  0AA8  0874               	movwf	(___xxtofl@exp)
  4587  0AA9  00F9               	line	24
  4588                           	goto	l1949
  4589  0AAA  2AB9               	
  4590                           l588:	
  4591  0AAB                     	line	25
  4592                           	
  4593                           l1947:	
  4594  0AAB                     	movlw	low(01h)
  4595  0AAB  3001               	movwf	(??___xxtofl+0)+0
  4596  0AAC  00F4               	movf	(??___xxtofl+0)+0,w
  4597  0AAD  0874               	addwf	(___xxtofl@exp),f
  4598  0AAE  07F9               	line	26
  4599                           	movlw	01h
  4600  0AAF  3001               u2985:
  4601  0AB0                     	clrc
  4602  0AB0  1003               	rrf	(___xxtofl@arg+3),f
  4603  0AB1  0CFD               	rrf	(___xxtofl@arg+2),f
  4604  0AB2  0CFC               	rrf	(___xxtofl@arg+1),f
  4605  0AB3  0CFB               	rrf	(___xxtofl@arg),f
  4606  0AB4  0CFA               	addlw	-1
  4607  0AB5  3EFF               	skipz
  4608  0AB6  1D03               	goto	u2985
  4609  0AB7  2AB0               
  4610                           	goto	l1949
  4611  0AB8  2AB9               	line	27
  4612                           	
  4613                           l587:	
  4614  0AB9                     	line	24
  4615                           	
  4616                           l1949:	
  4617  0AB9                     	movlw	high highword(0FE000000h)
  4618  0AB9  30FE               	andwf	(___xxtofl@arg+3),w
  4619  0ABA  057D               	btfss	status,2
  4620  0ABB  1D03               	goto	u2991
  4621  0ABC  2ABE               	goto	u2990
  4622  0ABD  2ABF               u2991:
  4623  0ABE                     	goto	l1947
  4624  0ABE  2AAB               u2990:
  4625  0ABF                     	goto	l590
  4626  0ABF  2ADC               	
  4627                           l589:	
  4628  0AC0                     	line	28
  4629                           	goto	l590
  4630  0AC0  2ADC               	
  4631                           l591:	
  4632  0AC1                     	line	29
  4633                           	
  4634                           l1951:	
  4635  0AC1                     	movlw	low(01h)
  4636  0AC1  3001               	movwf	(??___xxtofl+0)+0
  4637  0AC2  00F4               	movf	(??___xxtofl+0)+0,w
  4638  0AC3  0874               	addwf	(___xxtofl@exp),f
  4639  0AC4  07F9               	line	30
  4640                           	
  4641                           l1953:	
  4642  0AC5                     	movlw	01h
  4643  0AC5  3001               	addwf	(___xxtofl@arg),f
  4644  0AC6  07FA               	movlw	0
  4645  0AC7  3000               	skipnc
  4646  0AC8  1803               movlw 1
  4647  0AC9  3001               	addwf	(___xxtofl@arg+1),f
  4648  0ACA  07FB               	movlw	0
  4649  0ACB  3000               	skipnc
  4650  0ACC  1803               movlw 1
  4651  0ACD  3001               	addwf	(___xxtofl@arg+2),f
  4652  0ACE  07FC               	movlw	0
  4653  0ACF  3000               	skipnc
  4654  0AD0  1803               movlw 1
  4655  0AD1  3001               	addwf	(___xxtofl@arg+3),f
  4656  0AD2  07FD               	line	31
  4657                           	
  4658                           l1955:	
  4659  0AD3                     	movlw	01h
  4660  0AD3  3001               u3005:
  4661  0AD4                     	clrc
  4662  0AD4  1003               	rrf	(___xxtofl@arg+3),f
  4663  0AD5  0CFD               	rrf	(___xxtofl@arg+2),f
  4664  0AD6  0CFC               	rrf	(___xxtofl@arg+1),f
  4665  0AD7  0CFB               	rrf	(___xxtofl@arg),f
  4666  0AD8  0CFA               	addlw	-1
  4667  0AD9  3EFF               	skipz
  4668  0ADA  1D03               	goto	u3005
  4669  0ADB  2AD4               
  4670                           	line	32
  4671                           	
  4672                           l590:	
  4673  0ADC                     	line	28
  4674                           	movlw	high highword(0FF000000h)
  4675  0ADC  30FF               	andwf	(___xxtofl@arg+3),w
  4676  0ADD  057D               	btfss	status,2
  4677  0ADE  1D03               	goto	u3011
  4678  0ADF  2AE1               	goto	u3010
  4679  0AE0  2AE2               u3011:
  4680  0AE1                     	goto	l1951
  4681  0AE1  2AC1               u3010:
  4682  0AE2                     	goto	l1959
  4683  0AE2  2AF0               	
  4684                           l592:	
  4685  0AE3                     	line	33
  4686                           	goto	l1959
  4687  0AE3  2AF0               	
  4688                           l594:	
  4689  0AE4                     	line	34
  4690                           	
  4691                           l1957:	
  4692  0AE4                     	movlw	01h
  4693  0AE4  3001               	subwf	(___xxtofl@exp),f
  4694  0AE5  02F9               	line	35
  4695                           	movlw	01h
  4696  0AE6  3001               	movwf	(??___xxtofl+0)+0
  4697  0AE7  00F4               u3025:
  4698  0AE8                     	clrc
  4699  0AE8  1003               	rlf	(___xxtofl@arg),f
  4700  0AE9  0DFA               	rlf	(___xxtofl@arg+1),f
  4701  0AEA  0DFB               	rlf	(___xxtofl@arg+2),f
  4702  0AEB  0DFC               	rlf	(___xxtofl@arg+3),f
  4703  0AEC  0DFD               	decfsz	(??___xxtofl+0)+0
  4704  0AED  0BF4               	goto	u3025
  4705  0AEE  2AE8               	goto	l1959
  4706  0AEF  2AF0               	line	36
  4707                           	
  4708                           l593:	
  4709  0AF0                     	line	33
  4710                           	
  4711                           l1959:	
  4712  0AF0                     	btfsc	(___xxtofl@arg+2),(23)&7
  4713  0AF0  1BFC               	goto	u3031
  4714  0AF1  2AF3               	goto	u3030
  4715  0AF2  2AF4               u3031:
  4716  0AF3                     	goto	l597
  4717  0AF3  2AFB               u3030:
  4718  0AF4                     	
  4719                           l1961:	
  4720  0AF4                     	movlw	low(02h)
  4721  0AF4  3002               	subwf	(___xxtofl@exp),w
  4722  0AF5  0279               	skipnc
  4723  0AF6  1803               	goto	u3041
  4724  0AF7  2AF9               	goto	u3040
  4725  0AF8  2AFA               u3041:
  4726  0AF9                     	goto	l1957
  4727  0AF9  2AE4               u3040:
  4728  0AFA                     	goto	l597
  4729  0AFA  2AFB               	
  4730                           l596:	
  4731  0AFB                     	
  4732                           l597:	
  4733  0AFB                     	line	37
  4734                           	btfsc	(___xxtofl@exp),(0)&7
  4735  0AFB  1879               	goto	u3051
  4736  0AFC  2AFE               	goto	u3050
  4737  0AFD  2AFF               u3051:
  4738  0AFE                     	goto	l598
  4739  0AFE  2B07               u3050:
  4740  0AFF                     	line	38
  4741                           	
  4742                           l1963:	
  4743  0AFF                     	movlw	0FFh
  4744  0AFF  30FF               	andwf	(___xxtofl@arg),f
  4745  0B00  05FA               	movlw	0FFh
  4746  0B01  30FF               	andwf	(___xxtofl@arg+1),f
  4747  0B02  05FB               	movlw	07Fh
  4748  0B03  307F               	andwf	(___xxtofl@arg+2),f
  4749  0B04  05FC               	movlw	0FFh
  4750  0B05  30FF               	andwf	(___xxtofl@arg+3),f
  4751  0B06  05FD               	
  4752                           l598:	
  4753  0B07                     	line	39
  4754                           	clrc
  4755  0B07  1003               	rrf	(___xxtofl@exp),f
  4756  0B08  0CF9               
  4757                           	line	40
  4758                           	
  4759                           l1965:	
  4760  0B09                     	movf	(___xxtofl@exp),w
  4761  0B09  0879               	movwf	(??___xxtofl+0)+0
  4762  0B0A  00F4               	clrf	(??___xxtofl+0)+0+1
  4763  0B0B  01F5               	clrf	(??___xxtofl+0)+0+2
  4764  0B0C  01F6               	clrf	(??___xxtofl+0)+0+3
  4765  0B0D  01F7               	movlw	018h
  4766  0B0E  3018               u3065:
  4767  0B0F                     	clrc
  4768  0B0F  1003               	rlf	(??___xxtofl+0)+0,f
  4769  0B10  0DF4               	rlf	(??___xxtofl+0)+1,f
  4770  0B11  0DF5               	rlf	(??___xxtofl+0)+2,f
  4771  0B12  0DF6               	rlf	(??___xxtofl+0)+3,f
  4772  0B13  0DF7               u3060:
  4773  0B14                     	addlw	-1
  4774  0B14  3EFF               	skipz
  4775  0B15  1D03               	goto	u3065
  4776  0B16  2B0F               	movf	0+(??___xxtofl+0)+0,w
  4777  0B17  0874               	iorwf	(___xxtofl@arg),f
  4778  0B18  04FA               	movf	1+(??___xxtofl+0)+0,w
  4779  0B19  0875               	iorwf	(___xxtofl@arg+1),f
  4780  0B1A  04FB               	movf	2+(??___xxtofl+0)+0,w
  4781  0B1B  0876               	iorwf	(___xxtofl@arg+2),f
  4782  0B1C  04FC               	movf	3+(??___xxtofl+0)+0,w
  4783  0B1D  0877               	iorwf	(___xxtofl@arg+3),f
  4784  0B1E  04FD               	line	41
  4785                           	
  4786                           l1967:	
  4787  0B1F                     	movf	((___xxtofl@sign)),w
  4788  0B1F  0878               	btfsc	status,2
  4789  0B20  1903               	goto	u3071
  4790  0B21  2B23               	goto	u3070
  4791  0B22  2B24               u3071:
  4792  0B23                     	goto	l1973
  4793  0B23  2B2A               u3070:
  4794  0B24                     	
  4795                           l1969:	
  4796  0B24                     	btfss	(___xxtofl@val+3),7
  4797  0B24  1FF3               	goto	u3081
  4798  0B25  2B27               	goto	u3080
  4799  0B26  2B28               u3081:
  4800  0B27                     	goto	l1973
  4801  0B27  2B2A               u3080:
  4802  0B28                     	line	42
  4803                           	
  4804                           l1971:	
  4805  0B28                     	bsf	(___xxtofl@arg)+(31/8),(31)&7
  4806  0B28  17FD               	goto	l1973
  4807  0B29  2B2A               	
  4808                           l599:	
  4809  0B2A                     	line	43
  4810                           	
  4811                           l1973:	
  4812  0B2A                     	movf	(___xxtofl@arg+3),w
  4813  0B2A  087D               	movwf	(?___xxtofl+3)
  4814  0B2B  00F3               	movf	(___xxtofl@arg+2),w
  4815  0B2C  087C               	movwf	(?___xxtofl+2)
  4816  0B2D  00F2               	movf	(___xxtofl@arg+1),w
  4817  0B2E  087B               	movwf	(?___xxtofl+1)
  4818  0B2F  00F1               	movf	(___xxtofl@arg),w
  4819  0B30  087A               	movwf	(?___xxtofl)
  4820  0B31  00F0               
  4821                           	goto	l586
  4822  0B32  2B33               	
  4823                           l1975:	
  4824  0B33                     	line	44
  4825                           	
  4826                           l586:	
  4827  0B33                     	return
  4828  0B33  0008               	opt stack 0
  4829                           GLOBAL	__end_of___xxtofl
  4830                           	__end_of___xxtofl:
  4831  0B34                     	signat	___xxtofl,8316
  4832                           	global	___flmul
  4833                           
  4834 ;; *************** function ___flmul *****************
  4835 ;; Defined at:
  4836 ;;		line 8 in file "C:\Program Files (x86)\Microchip\xc8\v2.00\pic\sources\c90\common\sprcmul.c"
  4837 ;; Parameters:    Size  Location     Type
  4838 ;;  b               4    0[BANK0 ] unsigned char 
  4839 ;;  a               4    4[BANK0 ] unsigned char 
  4840 ;; Auto vars:     Size  Location     Type
  4841 ;;  prod            4   20[BANK0 ] struct .
  4842 ;;  grs             4   14[BANK0 ] unsigned long 
  4843 ;;  temp            2   24[BANK0 ] struct .
  4844 ;;  bexp            1   19[BANK0 ] unsigned char 
  4845 ;;  aexp            1   18[BANK0 ] unsigned char 
  4846 ;;  sign            1   13[BANK0 ] unsigned char 
  4847 ;; Return value:  Size  Location     Type
  4848 ;;                  4    0[BANK0 ] unsigned char 
  4849 ;; Registers used:
  4850 ;;		wreg, status,2, status,0, btemp+1, pclath, cstack
  4851 ;; Tracked objects:
  4852 ;;		On entry : 0/0
  4853 ;;		On exit  : 0/0
  4854 ;;		Unchanged: 0/0
  4855 ;; Data sizes:     COMMON   BANK0   BANK1   BANK3   BANK2
  4856 ;;      Params:         0       8       0       0       0
  4857 ;;      Locals:         0      13       0       0       0
  4858 ;;      Temps:          0       5       0       0       0
  4859 ;;      Totals:         0      26       0       0       0
  4860 ;;Total ram usage:       26 bytes
  4861 ;; Hardware stack levels used:    1
  4862 ;; Hardware stack levels required when called:    1
  4863 ;; This function calls:
  4864 ;;		__Umul8_16
  4865 ;; This function is called by:
  4866 ;;		_watch_heat
  4867 ;; This function uses a non-reentrant model
  4868 ;;
  4869                           psect	text10,local,class=CODE,delta=2,merge=1,group=1
  4870                           	file	"C:\Program Files (x86)\Microchip\xc8\v2.00\pic\sources\c90\common\sprcmul.c"
  4871                           	line	8
  4872                           global __ptext10
  4873                           __ptext10:	;psect for function ___flmul
  4874  0465                     psect	text10
  4875                           	file	"C:\Program Files (x86)\Microchip\xc8\v2.00\pic\sources\c90\common\sprcmul.c"
  4876                           	line	8
  4877                           	global	__size_of___flmul
  4878                           	__size_of___flmul	equ	__end_of___flmul-___flmul
  4879  0375                     	
  4880                           ___flmul:	
  4881  0465                     ;incstack = 0
  4882                           	opt	stack 5
  4883                           ; Regs used in ___flmul: [wreg+status,2+status,0+btemp+1+pclath+cstack]
  4884                           	line	17
  4885                           	
  4886                           l1793:	
  4887  0465                     	bcf	status, 5	;RP0=0, select bank0
  4888  0465  1283               	bcf	status, 6	;RP1=0, select bank0
  4889  0466  1303               	movf	0+(___flmul@b)+03h,w
  4890  0467  0823               	andlw	080h
  4891  0468  3980               	movwf	(??___flmul+0)+0
  4892  0469  00A8               	movf	(??___flmul+0)+0,w
  4893  046A  0828               	movwf	(___flmul@sign)
  4894  046B  00AD               	line	18
  4895                           	
  4896                           l1795:	
  4897  046C                     	movf	0+(___flmul@b)+03h,w
  4898  046C  0823               	movwf	(??___flmul+0)+0
  4899  046D  00A8               	addwf	(??___flmul+0)+0,w
  4900  046E  0728               	movwf	(??___flmul+1)+0
  4901  046F  00A9               	movf	(??___flmul+1)+0,w
  4902  0470  0829               	movwf	(___flmul@bexp)
  4903  0471  00B3               	line	19
  4904                           	
  4905                           l1797:	
  4906  0472                     	btfss	0+(___flmul@b)+02h,(7)&7
  4907  0472  1FA2               	goto	u2581
  4908  0473  2C75               	goto	u2580
  4909  0474  2C76               u2581:
  4910  0475                     	goto	l1801
  4911  0475  2C78               u2580:
  4912  0476                     	line	20
  4913                           	
  4914                           l1799:	
  4915  0476                     	bsf	(___flmul@bexp)+(0/8),(0)&7
  4916  0476  1433               	goto	l1801
  4917  0477  2C78               	line	21
  4918                           	
  4919                           l554:	
  4920  0478                     	line	24
  4921                           	
  4922                           l1801:	
  4923  0478                     	movf	((___flmul@bexp)),w
  4924  0478  0833               	btfsc	status,2
  4925  0479  1903               	goto	u2591
  4926  047A  2C7C               	goto	u2590
  4927  047B  2C7D               u2591:
  4928  047C                     	goto	l1809
  4929  047C  2C8D               u2590:
  4930  047D                     	line	26
  4931                           	
  4932                           l1803:	
  4933  047D                     		incf	((___flmul@bexp)),w
  4934  047D  0A33               	btfss	status,2
  4935  047E  1D03               	goto	u2601
  4936  047F  2C81               	goto	u2600
  4937  0480  2C82               u2601:
  4938  0481                     	goto	l1807
  4939  0481  2C8B               u2600:
  4940  0482                     	line	28
  4941                           	
  4942                           l1805:	
  4943  0482                     	movlw	0x0
  4944  0482  3000               	movwf	(___flmul@b+3)
  4945  0483  00A3               	movlw	0x0
  4946  0484  3000               	movwf	(___flmul@b+2)
  4947  0485  00A2               	movlw	0x0
  4948  0486  3000               	movwf	(___flmul@b+1)
  4949  0487  00A1               	movlw	0x0
  4950  0488  3000               	movwf	(___flmul@b)
  4951  0489  00A0               
  4952                           	goto	l1807
  4953  048A  2C8B               	line	29
  4954                           	
  4955                           l556:	
  4956  048B                     	line	31
  4957                           	
  4958                           l1807:	
  4959  048B                     	bsf	(___flmul@b)+(23/8),(23)&7
  4960  048B  17A2               	line	33
  4961                           	goto	l1811
  4962  048C  2C96               	line	34
  4963                           	
  4964                           l555:	
  4965  048D                     	line	36
  4966                           	
  4967                           l1809:	
  4968  048D                     	movlw	0x0
  4969  048D  3000               	movwf	(___flmul@b+3)
  4970  048E  00A3               	movlw	0x0
  4971  048F  3000               	movwf	(___flmul@b+2)
  4972  0490  00A2               	movlw	0x0
  4973  0491  3000               	movwf	(___flmul@b+1)
  4974  0492  00A1               	movlw	0x0
  4975  0493  3000               	movwf	(___flmul@b)
  4976  0494  00A0               
  4977                           	goto	l1811
  4978  0495  2C96               	line	37
  4979                           	
  4980                           l557:	
  4981  0496                     	line	39
  4982                           	
  4983                           l1811:	
  4984  0496                     	movf	0+(___flmul@a)+03h,w
  4985  0496  0827               	andlw	080h
  4986  0497  3980               	movwf	(??___flmul+0)+0
  4987  0498  00A8               	movf	(??___flmul+0)+0,w
  4988  0499  0828               	xorwf	(___flmul@sign),f
  4989  049A  06AD               	line	40
  4990                           	
  4991                           l1813:	
  4992  049B                     	movf	0+(___flmul@a)+03h,w
  4993  049B  0827               	movwf	(??___flmul+0)+0
  4994  049C  00A8               	addwf	(??___flmul+0)+0,w
  4995  049D  0728               	movwf	(??___flmul+1)+0
  4996  049E  00A9               	movf	(??___flmul+1)+0,w
  4997  049F  0829               	movwf	(___flmul@aexp)
  4998  04A0  00B2               	line	41
  4999                           	
  5000                           l1815:	
  5001  04A1                     	btfss	0+(___flmul@a)+02h,(7)&7
  5002  04A1  1FA6               	goto	u2611
  5003  04A2  2CA4               	goto	u2610
  5004  04A3  2CA5               u2611:
  5005  04A4                     	goto	l1819
  5006  04A4  2CA7               u2610:
  5007  04A5                     	line	42
  5008                           	
  5009                           l1817:	
  5010  04A5                     	bsf	(___flmul@aexp)+(0/8),(0)&7
  5011  04A5  1432               	goto	l1819
  5012  04A6  2CA7               	line	43
  5013                           	
  5014                           l558:	
  5015  04A7                     	line	45
  5016                           	
  5017                           l1819:	
  5018  04A7                     	movf	((___flmul@aexp)),w
  5019  04A7  0832               	btfsc	status,2
  5020  04A8  1903               	goto	u2621
  5021  04A9  2CAB               	goto	u2620
  5022  04AA  2CAC               u2621:
  5023  04AB                     	goto	l1827
  5024  04AB  2CBC               u2620:
  5025  04AC                     	line	48
  5026                           	
  5027                           l1821:	
  5028  04AC                     		incf	((___flmul@aexp)),w
  5029  04AC  0A32               	btfss	status,2
  5030  04AD  1D03               	goto	u2631
  5031  04AE  2CB0               	goto	u2630
  5032  04AF  2CB1               u2631:
  5033  04B0                     	goto	l1825
  5034  04B0  2CBA               u2630:
  5035  04B1                     	line	50
  5036                           	
  5037                           l1823:	
  5038  04B1                     	movlw	0x0
  5039  04B1  3000               	movwf	(___flmul@a+3)
  5040  04B2  00A7               	movlw	0x0
  5041  04B3  3000               	movwf	(___flmul@a+2)
  5042  04B4  00A6               	movlw	0x0
  5043  04B5  3000               	movwf	(___flmul@a+1)
  5044  04B6  00A5               	movlw	0x0
  5045  04B7  3000               	movwf	(___flmul@a)
  5046  04B8  00A4               
  5047                           	goto	l1825
  5048  04B9  2CBA               	line	51
  5049                           	
  5050                           l560:	
  5051  04BA                     	line	53
  5052                           	
  5053                           l1825:	
  5054  04BA                     	bsf	(___flmul@a)+(23/8),(23)&7
  5055  04BA  17A6               	line	54
  5056                           	goto	l1829
  5057  04BB  2CC5               	line	55
  5058                           	
  5059                           l559:	
  5060  04BC                     	line	57
  5061                           	
  5062                           l1827:	
  5063  04BC                     	movlw	0x0
  5064  04BC  3000               	movwf	(___flmul@a+3)
  5065  04BD  00A7               	movlw	0x0
  5066  04BE  3000               	movwf	(___flmul@a+2)
  5067  04BF  00A6               	movlw	0x0
  5068  04C0  3000               	movwf	(___flmul@a+1)
  5069  04C1  00A5               	movlw	0x0
  5070  04C2  3000               	movwf	(___flmul@a)
  5071  04C3  00A4               
  5072                           	goto	l1829
  5073  04C4  2CC5               	line	58
  5074                           	
  5075                           l561:	
  5076  04C5                     	line	65
  5077                           	
  5078                           l1829:	
  5079  04C5                     	movf	((___flmul@aexp)),w
  5080  04C5  0832               	btfsc	status,2
  5081  04C6  1903               	goto	u2641
  5082  04C7  2CC9               	goto	u2640
  5083  04C8  2CCA               u2641:
  5084  04C9                     	goto	l1833
  5085  04C9  2CD0               u2640:
  5086  04CA                     	
  5087                           l1831:	
  5088  04CA                     	movf	((___flmul@bexp)),w
  5089  04CA  0833               	btfss	status,2
  5090  04CB  1D03               	goto	u2651
  5091  04CC  2CCE               	goto	u2650
  5092  04CD  2CCF               u2651:
  5093  04CE                     	goto	l1837
  5094  04CE  2CDA               u2650:
  5095  04CF                     	goto	l1833
  5096  04CF  2CD0               	
  5097                           l564:	
  5098  04D0                     	line	66
  5099                           	
  5100                           l1833:	
  5101  04D0                     	movlw	0x0
  5102  04D0  3000               	movwf	(?___flmul+3)
  5103  04D1  00A3               	movlw	0x0
  5104  04D2  3000               	movwf	(?___flmul+2)
  5105  04D3  00A2               	movlw	0x0
  5106  04D4  3000               	movwf	(?___flmul+1)
  5107  04D5  00A1               	movlw	0x0
  5108  04D6  3000               	movwf	(?___flmul)
  5109  04D7  00A0               
  5110                           	goto	l565
  5111  04D8  2FD9               	
  5112                           l1835:	
  5113  04D9                     	goto	l565
  5114  04D9  2FD9               	line	67
  5115                           	
  5116                           l562:	
  5117  04DA                     	line	119
  5118                           	
  5119                           l1837:	
  5120  04DA                     	movf	(___flmul@b),w
  5121  04DA  0820               	movwf	(??___flmul+0)+0
  5122  04DB  00A8               	movf	(??___flmul+0)+0,w
  5123  04DC  0828               	movwf	(__Umul8_16@multiplicand)
  5124  04DD  00F0               	movf	0+(___flmul@a)+02h,w
  5125  04DE  0826               	fcall	__Umul8_16
  5126  04DF  120A  158A  2155  120A  118A  	movf	(1+(?__Umul8_16)),w
  5127  04E4  0871               	bcf	status, 5	;RP0=0, select bank0
  5128  04E5  1283               	bcf	status, 6	;RP1=0, select bank0
  5129  04E6  1303               	movwf	(___flmul@temp+1)
  5130  04E7  00B9               	movf	(0+(?__Umul8_16)),w
  5131  04E8  0870               	movwf	(___flmul@temp)
  5132  04E9  00B8               	line	120
  5133                           	
  5134                           l1839:	
  5135  04EA                     	movf	(___flmul@temp),w
  5136  04EA  0838               	movwf	(??___flmul+0)+0
  5137  04EB  00A8               	clrf	(??___flmul+0)+0+1
  5138  04EC  01A9               	clrf	(??___flmul+0)+0+2
  5139  04ED  01AA               	clrf	(??___flmul+0)+0+3
  5140  04EE  01AB               	movf	3+(??___flmul+0)+0,w
  5141  04EF  082B               	movwf	(___flmul@grs+3)
  5142  04F0  00B1               	movf	2+(??___flmul+0)+0,w
  5143  04F1  082A               	movwf	(___flmul@grs+2)
  5144  04F2  00B0               	movf	1+(??___flmul+0)+0,w
  5145  04F3  0829               	movwf	(___flmul@grs+1)
  5146  04F4  00AF               	movf	0+(??___flmul+0)+0,w
  5147  04F5  0828               	movwf	(___flmul@grs)
  5148  04F6  00AE               
  5149                           	line	121
  5150                           	
  5151                           l1841:	
  5152  04F7                     	movf	0+(___flmul@temp)+01h,w
  5153  04F7  0839               	movwf	(??___flmul+0)+0
  5154  04F8  00A8               	clrf	(??___flmul+0)+0+1
  5155  04F9  01A9               	clrf	(??___flmul+0)+0+2
  5156  04FA  01AA               	clrf	(??___flmul+0)+0+3
  5157  04FB  01AB               	movf	3+(??___flmul+0)+0,w
  5158  04FC  082B               	movwf	(___flmul@prod+3)
  5159  04FD  00B7               	movf	2+(??___flmul+0)+0,w
  5160  04FE  082A               	movwf	(___flmul@prod+2)
  5161  04FF  00B6               	movf	1+(??___flmul+0)+0,w
  5162  0500  0829               	movwf	(___flmul@prod+1)
  5163  0501  00B5               	movf	0+(??___flmul+0)+0,w
  5164  0502  0828               	movwf	(___flmul@prod)
  5165  0503  00B4               
  5166                           	line	122
  5167                           	movf	0+(___flmul@b)+01h,w
  5168  0504  0821               	movwf	(??___flmul+0)+0
  5169  0505  00A8               	movf	(??___flmul+0)+0,w
  5170  0506  0828               	movwf	(__Umul8_16@multiplicand)
  5171  0507  00F0               	movf	0+(___flmul@a)+01h,w
  5172  0508  0825               	fcall	__Umul8_16
  5173  0509  120A  158A  2155  120A  118A  	movf	(1+(?__Umul8_16)),w
  5174  050E  0871               	bcf	status, 5	;RP0=0, select bank0
  5175  050F  1283               	bcf	status, 6	;RP1=0, select bank0
  5176  0510  1303               	movwf	(___flmul@temp+1)
  5177  0511  00B9               	movf	(0+(?__Umul8_16)),w
  5178  0512  0870               	movwf	(___flmul@temp)
  5179  0513  00B8               	line	123
  5180                           	
  5181                           l1843:	
  5182  0514                     	movf	(___flmul@temp),w
  5183  0514  0838               	movwf	(??___flmul+0)+0
  5184  0515  00A8               	clrf	(??___flmul+0)+0+1
  5185  0516  01A9               	clrf	(??___flmul+0)+0+2
  5186  0517  01AA               	clrf	(??___flmul+0)+0+3
  5187  0518  01AB               	movf	0+(??___flmul+0)+0,w
  5188  0519  0828               	addwf	(___flmul@grs),f
  5189  051A  07AE               	movf	1+(??___flmul+0)+0,w
  5190  051B  0829               	clrz
  5191  051C  1103               	skipnc
  5192  051D  1803               	addlw	1
  5193  051E  3E01               	skipnz
  5194  051F  1903               	goto	u2661
  5195  0520  2D22               	addwf	(___flmul@grs+1),f
  5196  0521  07AF               u2661:
  5197  0522                     	movf	2+(??___flmul+0)+0,w
  5198  0522  082A               	clrz
  5199  0523  1103               	skipnc
  5200  0524  1803               	addlw	1
  5201  0525  3E01               	skipnz
  5202  0526  1903               	goto	u2662
  5203  0527  2D29               	addwf	(___flmul@grs+2),f
  5204  0528  07B0               u2662:
  5205  0529                     	movf	3+(??___flmul+0)+0,w
  5206  0529  082B               	clrz
  5207  052A  1103               	skipnc
  5208  052B  1803               	addlw	1
  5209  052C  3E01               	skipnz
  5210  052D  1903               	goto	u2663
  5211  052E  2D30               	addwf	(___flmul@grs+3),f
  5212  052F  07B1               u2663:
  5213  0530                     
  5214                           	line	124
  5215                           	
  5216                           l1845:	
  5217  0530                     	movf	0+(___flmul@temp)+01h,w
  5218  0530  0839               	movwf	(??___flmul+0)+0
  5219  0531  00A8               	clrf	(??___flmul+0)+0+1
  5220  0532  01A9               	clrf	(??___flmul+0)+0+2
  5221  0533  01AA               	clrf	(??___flmul+0)+0+3
  5222  0534  01AB               	movf	0+(??___flmul+0)+0,w
  5223  0535  0828               	addwf	(___flmul@prod),f
  5224  0536  07B4               	movf	1+(??___flmul+0)+0,w
  5225  0537  0829               	clrz
  5226  0538  1103               	skipnc
  5227  0539  1803               	addlw	1
  5228  053A  3E01               	skipnz
  5229  053B  1903               	goto	u2671
  5230  053C  2D3E               	addwf	(___flmul@prod+1),f
  5231  053D  07B5               u2671:
  5232  053E                     	movf	2+(??___flmul+0)+0,w
  5233  053E  082A               	clrz
  5234  053F  1103               	skipnc
  5235  0540  1803               	addlw	1
  5236  0541  3E01               	skipnz
  5237  0542  1903               	goto	u2672
  5238  0543  2D45               	addwf	(___flmul@prod+2),f
  5239  0544  07B6               u2672:
  5240  0545                     	movf	3+(??___flmul+0)+0,w
  5241  0545  082B               	clrz
  5242  0546  1103               	skipnc
  5243  0547  1803               	addlw	1
  5244  0548  3E01               	skipnz
  5245  0549  1903               	goto	u2673
  5246  054A  2D4C               	addwf	(___flmul@prod+3),f
  5247  054B  07B7               u2673:
  5248  054C                     
  5249                           	line	125
  5250                           	movf	0+(___flmul@b)+02h,w
  5251  054C  0822               	movwf	(??___flmul+0)+0
  5252  054D  00A8               	movf	(??___flmul+0)+0,w
  5253  054E  0828               	movwf	(__Umul8_16@multiplicand)
  5254  054F  00F0               	movf	(___flmul@a),w
  5255  0550  0824               	fcall	__Umul8_16
  5256  0551  120A  158A  2155  120A  118A  	movf	(1+(?__Umul8_16)),w
  5257  0556  0871               	bcf	status, 5	;RP0=0, select bank0
  5258  0557  1283               	bcf	status, 6	;RP1=0, select bank0
  5259  0558  1303               	movwf	(___flmul@temp+1)
  5260  0559  00B9               	movf	(0+(?__Umul8_16)),w
  5261  055A  0870               	movwf	(___flmul@temp)
  5262  055B  00B8               	line	126
  5263                           	
  5264                           l1847:	
  5265  055C                     	movf	(___flmul@temp),w
  5266  055C  0838               	movwf	(??___flmul+0)+0
  5267  055D  00A8               	clrf	(??___flmul+0)+0+1
  5268  055E  01A9               	clrf	(??___flmul+0)+0+2
  5269  055F  01AA               	clrf	(??___flmul+0)+0+3
  5270  0560  01AB               	movf	0+(??___flmul+0)+0,w
  5271  0561  0828               	addwf	(___flmul@grs),f
  5272  0562  07AE               	movf	1+(??___flmul+0)+0,w
  5273  0563  0829               	clrz
  5274  0564  1103               	skipnc
  5275  0565  1803               	addlw	1
  5276  0566  3E01               	skipnz
  5277  0567  1903               	goto	u2681
  5278  0568  2D6A               	addwf	(___flmul@grs+1),f
  5279  0569  07AF               u2681:
  5280  056A                     	movf	2+(??___flmul+0)+0,w
  5281  056A  082A               	clrz
  5282  056B  1103               	skipnc
  5283  056C  1803               	addlw	1
  5284  056D  3E01               	skipnz
  5285  056E  1903               	goto	u2682
  5286  056F  2D71               	addwf	(___flmul@grs+2),f
  5287  0570  07B0               u2682:
  5288  0571                     	movf	3+(??___flmul+0)+0,w
  5289  0571  082B               	clrz
  5290  0572  1103               	skipnc
  5291  0573  1803               	addlw	1
  5292  0574  3E01               	skipnz
  5293  0575  1903               	goto	u2683
  5294  0576  2D78               	addwf	(___flmul@grs+3),f
  5295  0577  07B1               u2683:
  5296  0578                     
  5297                           	line	127
  5298                           	
  5299                           l1849:	
  5300  0578                     	movf	0+(___flmul@temp)+01h,w
  5301  0578  0839               	movwf	(??___flmul+0)+0
  5302  0579  00A8               	clrf	(??___flmul+0)+0+1
  5303  057A  01A9               	clrf	(??___flmul+0)+0+2
  5304  057B  01AA               	clrf	(??___flmul+0)+0+3
  5305  057C  01AB               	movf	0+(??___flmul+0)+0,w
  5306  057D  0828               	addwf	(___flmul@prod),f
  5307  057E  07B4               	movf	1+(??___flmul+0)+0,w
  5308  057F  0829               	clrz
  5309  0580  1103               	skipnc
  5310  0581  1803               	addlw	1
  5311  0582  3E01               	skipnz
  5312  0583  1903               	goto	u2691
  5313  0584  2D86               	addwf	(___flmul@prod+1),f
  5314  0585  07B5               u2691:
  5315  0586                     	movf	2+(??___flmul+0)+0,w
  5316  0586  082A               	clrz
  5317  0587  1103               	skipnc
  5318  0588  1803               	addlw	1
  5319  0589  3E01               	skipnz
  5320  058A  1903               	goto	u2692
  5321  058B  2D8D               	addwf	(___flmul@prod+2),f
  5322  058C  07B6               u2692:
  5323  058D                     	movf	3+(??___flmul+0)+0,w
  5324  058D  082B               	clrz
  5325  058E  1103               	skipnc
  5326  058F  1803               	addlw	1
  5327  0590  3E01               	skipnz
  5328  0591  1903               	goto	u2693
  5329  0592  2D94               	addwf	(___flmul@prod+3),f
  5330  0593  07B7               u2693:
  5331  0594                     
  5332                           	line	128
  5333                           	
  5334                           l1851:	
  5335  0594                     	movlw	08h
  5336  0594  3008               	movwf	(??___flmul+0)+0
  5337  0595  00A8               u2705:
  5338  0596                     	clrc
  5339  0596  1003               	rlf	(___flmul@grs),f
  5340  0597  0DAE               	rlf	(___flmul@grs+1),f
  5341  0598  0DAF               	rlf	(___flmul@grs+2),f
  5342  0599  0DB0               	rlf	(___flmul@grs+3),f
  5343  059A  0DB1               	decfsz	(??___flmul+0)+0
  5344  059B  0BA8               	goto	u2705
  5345  059C  2D96               	line	129
  5346                           	
  5347                           l1853:	
  5348  059D                     	movf	0+(___flmul@b)+01h,w
  5349  059D  0821               	movwf	(??___flmul+0)+0
  5350  059E  00A8               	movf	(??___flmul+0)+0,w
  5351  059F  0828               	movwf	(__Umul8_16@multiplicand)
  5352  05A0  00F0               	movf	(___flmul@a),w
  5353  05A1  0824               	fcall	__Umul8_16
  5354  05A2  120A  158A  2155  120A  118A  	movf	(1+(?__Umul8_16)),w
  5355  05A7  0871               	bcf	status, 5	;RP0=0, select bank0
  5356  05A8  1283               	bcf	status, 6	;RP1=0, select bank0
  5357  05A9  1303               	movwf	(___flmul@temp+1)
  5358  05AA  00B9               	movf	(0+(?__Umul8_16)),w
  5359  05AB  0870               	movwf	(___flmul@temp)
  5360  05AC  00B8               	line	130
  5361                           	
  5362                           l1855:	
  5363  05AD                     	movf	(___flmul@temp),w
  5364  05AD  0838               	movwf	((??___flmul+0)+0)
  5365  05AE  00A8               	movf	(___flmul@temp+1),w
  5366  05AF  0839               	movwf	((??___flmul+0)+0+1)
  5367  05B0  00A9               	clrf	((??___flmul+0)+0+2)
  5368  05B1  01AA               	clrf	((??___flmul+0)+0+3)
  5369  05B2  01AB               	movf	0+(??___flmul+0)+0,w
  5370  05B3  0828               	addwf	(___flmul@grs),f
  5371  05B4  07AE               	movf	1+(??___flmul+0)+0,w
  5372  05B5  0829               	clrz
  5373  05B6  1103               	skipnc
  5374  05B7  1803               	addlw	1
  5375  05B8  3E01               	skipnz
  5376  05B9  1903               	goto	u2711
  5377  05BA  2DBC               	addwf	(___flmul@grs+1),f
  5378  05BB  07AF               u2711:
  5379  05BC                     	movf	2+(??___flmul+0)+0,w
  5380  05BC  082A               	clrz
  5381  05BD  1103               	skipnc
  5382  05BE  1803               	addlw	1
  5383  05BF  3E01               	skipnz
  5384  05C0  1903               	goto	u2712
  5385  05C1  2DC3               	addwf	(___flmul@grs+2),f
  5386  05C2  07B0               u2712:
  5387  05C3                     	movf	3+(??___flmul+0)+0,w
  5388  05C3  082B               	clrz
  5389  05C4  1103               	skipnc
  5390  05C5  1803               	addlw	1
  5391  05C6  3E01               	skipnz
  5392  05C7  1903               	goto	u2713
  5393  05C8  2DCA               	addwf	(___flmul@grs+3),f
  5394  05C9  07B1               u2713:
  5395  05CA                     
  5396                           	line	131
  5397                           	
  5398                           l1857:	
  5399  05CA                     	movf	(___flmul@b),w
  5400  05CA  0820               	movwf	(??___flmul+0)+0
  5401  05CB  00A8               	movf	(??___flmul+0)+0,w
  5402  05CC  0828               	movwf	(__Umul8_16@multiplicand)
  5403  05CD  00F0               	movf	0+(___flmul@a)+01h,w
  5404  05CE  0825               	fcall	__Umul8_16
  5405  05CF  120A  158A  2155  120A  118A  	movf	(1+(?__Umul8_16)),w
  5406  05D4  0871               	bcf	status, 5	;RP0=0, select bank0
  5407  05D5  1283               	bcf	status, 6	;RP1=0, select bank0
  5408  05D6  1303               	movwf	(___flmul@temp+1)
  5409  05D7  00B9               	movf	(0+(?__Umul8_16)),w
  5410  05D8  0870               	movwf	(___flmul@temp)
  5411  05D9  00B8               	line	132
  5412                           	
  5413                           l1859:	
  5414  05DA                     	movf	(___flmul@temp),w
  5415  05DA  0838               	movwf	((??___flmul+0)+0)
  5416  05DB  00A8               	movf	(___flmul@temp+1),w
  5417  05DC  0839               	movwf	((??___flmul+0)+0+1)
  5418  05DD  00A9               	clrf	((??___flmul+0)+0+2)
  5419  05DE  01AA               	clrf	((??___flmul+0)+0+3)
  5420  05DF  01AB               	movf	0+(??___flmul+0)+0,w
  5421  05E0  0828               	addwf	(___flmul@grs),f
  5422  05E1  07AE               	movf	1+(??___flmul+0)+0,w
  5423  05E2  0829               	clrz
  5424  05E3  1103               	skipnc
  5425  05E4  1803               	addlw	1
  5426  05E5  3E01               	skipnz
  5427  05E6  1903               	goto	u2721
  5428  05E7  2DE9               	addwf	(___flmul@grs+1),f
  5429  05E8  07AF               u2721:
  5430  05E9                     	movf	2+(??___flmul+0)+0,w
  5431  05E9  082A               	clrz
  5432  05EA  1103               	skipnc
  5433  05EB  1803               	addlw	1
  5434  05EC  3E01               	skipnz
  5435  05ED  1903               	goto	u2722
  5436  05EE  2DF0               	addwf	(___flmul@grs+2),f
  5437  05EF  07B0               u2722:
  5438  05F0                     	movf	3+(??___flmul+0)+0,w
  5439  05F0  082B               	clrz
  5440  05F1  1103               	skipnc
  5441  05F2  1803               	addlw	1
  5442  05F3  3E01               	skipnz
  5443  05F4  1903               	goto	u2723
  5444  05F5  2DF7               	addwf	(___flmul@grs+3),f
  5445  05F6  07B1               u2723:
  5446  05F7                     
  5447                           	line	133
  5448                           	
  5449                           l1861:	
  5450  05F7                     	movlw	08h
  5451  05F7  3008               	movwf	(??___flmul+0)+0
  5452  05F8  00A8               u2735:
  5453  05F9                     	clrc
  5454  05F9  1003               	rlf	(___flmul@grs),f
  5455  05FA  0DAE               	rlf	(___flmul@grs+1),f
  5456  05FB  0DAF               	rlf	(___flmul@grs+2),f
  5457  05FC  0DB0               	rlf	(___flmul@grs+3),f
  5458  05FD  0DB1               	decfsz	(??___flmul+0)+0
  5459  05FE  0BA8               	goto	u2735
  5460  05FF  2DF9               	line	134
  5461                           	movf	(___flmul@b),w
  5462  0600  0820               	movwf	(??___flmul+0)+0
  5463  0601  00A8               	movf	(??___flmul+0)+0,w
  5464  0602  0828               	movwf	(__Umul8_16@multiplicand)
  5465  0603  00F0               	movf	(___flmul@a),w
  5466  0604  0824               	fcall	__Umul8_16
  5467  0605  120A  158A  2155  120A  118A  	movf	(1+(?__Umul8_16)),w
  5468  060A  0871               	bcf	status, 5	;RP0=0, select bank0
  5469  060B  1283               	bcf	status, 6	;RP1=0, select bank0
  5470  060C  1303               	movwf	(___flmul@temp+1)
  5471  060D  00B9               	movf	(0+(?__Umul8_16)),w
  5472  060E  0870               	movwf	(___flmul@temp)
  5473  060F  00B8               	line	135
  5474                           	
  5475                           l1863:	
  5476  0610                     	movf	(___flmul@temp),w
  5477  0610  0838               	movwf	((??___flmul+0)+0)
  5478  0611  00A8               	movf	(___flmul@temp+1),w
  5479  0612  0839               	movwf	((??___flmul+0)+0+1)
  5480  0613  00A9               	clrf	((??___flmul+0)+0+2)
  5481  0614  01AA               	clrf	((??___flmul+0)+0+3)
  5482  0615  01AB               	movf	0+(??___flmul+0)+0,w
  5483  0616  0828               	addwf	(___flmul@grs),f
  5484  0617  07AE               	movf	1+(??___flmul+0)+0,w
  5485  0618  0829               	clrz
  5486  0619  1103               	skipnc
  5487  061A  1803               	addlw	1
  5488  061B  3E01               	skipnz
  5489  061C  1903               	goto	u2741
  5490  061D  2E1F               	addwf	(___flmul@grs+1),f
  5491  061E  07AF               u2741:
  5492  061F                     	movf	2+(??___flmul+0)+0,w
  5493  061F  082A               	clrz
  5494  0620  1103               	skipnc
  5495  0621  1803               	addlw	1
  5496  0622  3E01               	skipnz
  5497  0623  1903               	goto	u2742
  5498  0624  2E26               	addwf	(___flmul@grs+2),f
  5499  0625  07B0               u2742:
  5500  0626                     	movf	3+(??___flmul+0)+0,w
  5501  0626  082B               	clrz
  5502  0627  1103               	skipnc
  5503  0628  1803               	addlw	1
  5504  0629  3E01               	skipnz
  5505  062A  1903               	goto	u2743
  5506  062B  2E2D               	addwf	(___flmul@grs+3),f
  5507  062C  07B1               u2743:
  5508  062D                     
  5509                           	line	136
  5510                           	
  5511                           l1865:	
  5512  062D                     	movf	0+(___flmul@b)+01h,w
  5513  062D  0821               	movwf	(??___flmul+0)+0
  5514  062E  00A8               	movf	(??___flmul+0)+0,w
  5515  062F  0828               	movwf	(__Umul8_16@multiplicand)
  5516  0630  00F0               	movf	0+(___flmul@a)+02h,w
  5517  0631  0826               	fcall	__Umul8_16
  5518  0632  120A  158A  2155  120A  118A  	movf	(1+(?__Umul8_16)),w
  5519  0637  0871               	bcf	status, 5	;RP0=0, select bank0
  5520  0638  1283               	bcf	status, 6	;RP1=0, select bank0
  5521  0639  1303               	movwf	(___flmul@temp+1)
  5522  063A  00B9               	movf	(0+(?__Umul8_16)),w
  5523  063B  0870               	movwf	(___flmul@temp)
  5524  063C  00B8               	line	137
  5525                           	movf	(___flmul@temp),w
  5526  063D  0838               	movwf	((??___flmul+0)+0)
  5527  063E  00A8               	movf	(___flmul@temp+1),w
  5528  063F  0839               	movwf	((??___flmul+0)+0+1)
  5529  0640  00A9               	clrf	((??___flmul+0)+0+2)
  5530  0641  01AA               	clrf	((??___flmul+0)+0+3)
  5531  0642  01AB               	movf	0+(??___flmul+0)+0,w
  5532  0643  0828               	addwf	(___flmul@prod),f
  5533  0644  07B4               	movf	1+(??___flmul+0)+0,w
  5534  0645  0829               	clrz
  5535  0646  1103               	skipnc
  5536  0647  1803               	addlw	1
  5537  0648  3E01               	skipnz
  5538  0649  1903               	goto	u2751
  5539  064A  2E4C               	addwf	(___flmul@prod+1),f
  5540  064B  07B5               u2751:
  5541  064C                     	movf	2+(??___flmul+0)+0,w
  5542  064C  082A               	clrz
  5543  064D  1103               	skipnc
  5544  064E  1803               	addlw	1
  5545  064F  3E01               	skipnz
  5546  0650  1903               	goto	u2752
  5547  0651  2E53               	addwf	(___flmul@prod+2),f
  5548  0652  07B6               u2752:
  5549  0653                     	movf	3+(??___flmul+0)+0,w
  5550  0653  082B               	clrz
  5551  0654  1103               	skipnc
  5552  0655  1803               	addlw	1
  5553  0656  3E01               	skipnz
  5554  0657  1903               	goto	u2753
  5555  0658  2E5A               	addwf	(___flmul@prod+3),f
  5556  0659  07B7               u2753:
  5557  065A                     
  5558                           	line	138
  5559                           	
  5560                           l1867:	
  5561  065A                     	movf	0+(___flmul@b)+02h,w
  5562  065A  0822               	movwf	(??___flmul+0)+0
  5563  065B  00A8               	movf	(??___flmul+0)+0,w
  5564  065C  0828               	movwf	(__Umul8_16@multiplicand)
  5565  065D  00F0               	movf	0+(___flmul@a)+01h,w
  5566  065E  0825               	fcall	__Umul8_16
  5567  065F  120A  158A  2155  120A  118A  	movf	(1+(?__Umul8_16)),w
  5568  0664  0871               	bcf	status, 5	;RP0=0, select bank0
  5569  0665  1283               	bcf	status, 6	;RP1=0, select bank0
  5570  0666  1303               	movwf	(___flmul@temp+1)
  5571  0667  00B9               	movf	(0+(?__Umul8_16)),w
  5572  0668  0870               	movwf	(___flmul@temp)
  5573  0669  00B8               	line	139
  5574                           	
  5575                           l1869:	
  5576  066A                     	movf	(___flmul@temp),w
  5577  066A  0838               	movwf	((??___flmul+0)+0)
  5578  066B  00A8               	movf	(___flmul@temp+1),w
  5579  066C  0839               	movwf	((??___flmul+0)+0+1)
  5580  066D  00A9               	clrf	((??___flmul+0)+0+2)
  5581  066E  01AA               	clrf	((??___flmul+0)+0+3)
  5582  066F  01AB               	movf	0+(??___flmul+0)+0,w
  5583  0670  0828               	addwf	(___flmul@prod),f
  5584  0671  07B4               	movf	1+(??___flmul+0)+0,w
  5585  0672  0829               	clrz
  5586  0673  1103               	skipnc
  5587  0674  1803               	addlw	1
  5588  0675  3E01               	skipnz
  5589  0676  1903               	goto	u2761
  5590  0677  2E79               	addwf	(___flmul@prod+1),f
  5591  0678  07B5               u2761:
  5592  0679                     	movf	2+(??___flmul+0)+0,w
  5593  0679  082A               	clrz
  5594  067A  1103               	skipnc
  5595  067B  1803               	addlw	1
  5596  067C  3E01               	skipnz
  5597  067D  1903               	goto	u2762
  5598  067E  2E80               	addwf	(___flmul@prod+2),f
  5599  067F  07B6               u2762:
  5600  0680                     	movf	3+(??___flmul+0)+0,w
  5601  0680  082B               	clrz
  5602  0681  1103               	skipnc
  5603  0682  1803               	addlw	1
  5604  0683  3E01               	skipnz
  5605  0684  1903               	goto	u2763
  5606  0685  2E87               	addwf	(___flmul@prod+3),f
  5607  0686  07B7               u2763:
  5608  0687                     
  5609                           	line	140
  5610                           	movf	0+(___flmul@b)+02h,w
  5611  0687  0822               	movwf	(??___flmul+0)+0
  5612  0688  00A8               	movf	(??___flmul+0)+0,w
  5613  0689  0828               	movwf	(__Umul8_16@multiplicand)
  5614  068A  00F0               	movf	0+(___flmul@a)+02h,w
  5615  068B  0826               	fcall	__Umul8_16
  5616  068C  120A  158A  2155  120A  118A  	movf	(1+(?__Umul8_16)),w
  5617  0691  0871               	bcf	status, 5	;RP0=0, select bank0
  5618  0692  1283               	bcf	status, 6	;RP1=0, select bank0
  5619  0693  1303               	movwf	(___flmul@temp+1)
  5620  0694  00B9               	movf	(0+(?__Umul8_16)),w
  5621  0695  0870               	movwf	(___flmul@temp)
  5622  0696  00B8               	line	141
  5623                           	
  5624                           l1871:	
  5625  0697                     	movf	(___flmul@temp),w
  5626  0697  0838               	movwf	((??___flmul+0)+0)
  5627  0698  00A8               	movf	(___flmul@temp+1),w
  5628  0699  0839               	movwf	((??___flmul+0)+0+1)
  5629  069A  00A9               	clrf	((??___flmul+0)+0+2)
  5630  069B  01AA               	clrf	((??___flmul+0)+0+3)
  5631  069C  01AB               	movlw	08h
  5632  069D  3008               u2775:
  5633  069E                     	clrc
  5634  069E  1003               	rlf	(??___flmul+0)+0,f
  5635  069F  0DA8               	rlf	(??___flmul+0)+1,f
  5636  06A0  0DA9               	rlf	(??___flmul+0)+2,f
  5637  06A1  0DAA               	rlf	(??___flmul+0)+3,f
  5638  06A2  0DAB               u2770:
  5639  06A3                     	addlw	-1
  5640  06A3  3EFF               	skipz
  5641  06A4  1D03               	goto	u2775
  5642  06A5  2E9E               	movf	0+(??___flmul+0)+0,w
  5643  06A6  0828               	addwf	(___flmul@prod),f
  5644  06A7  07B4               	movf	1+(??___flmul+0)+0,w
  5645  06A8  0829               	clrz
  5646  06A9  1103               	skipnc
  5647  06AA  1803               	addlw	1
  5648  06AB  3E01               	skipnz
  5649  06AC  1903               	goto	u2781
  5650  06AD  2EAF               	addwf	(___flmul@prod+1),f
  5651  06AE  07B5               u2781:
  5652  06AF                     	movf	2+(??___flmul+0)+0,w
  5653  06AF  082A               	clrz
  5654  06B0  1103               	skipnc
  5655  06B1  1803               	addlw	1
  5656  06B2  3E01               	skipnz
  5657  06B3  1903               	goto	u2782
  5658  06B4  2EB6               	addwf	(___flmul@prod+2),f
  5659  06B5  07B6               u2782:
  5660  06B6                     	movf	3+(??___flmul+0)+0,w
  5661  06B6  082B               	clrz
  5662  06B7  1103               	skipnc
  5663  06B8  1803               	addlw	1
  5664  06B9  3E01               	skipnz
  5665  06BA  1903               	goto	u2783
  5666  06BB  2EBD               	addwf	(___flmul@prod+3),f
  5667  06BC  07B7               u2783:
  5668  06BD                     
  5669                           	line	145
  5670                           	
  5671                           l1873:	
  5672  06BD                     	movf	(___flmul@grs),w
  5673  06BD  082E               	movwf	(??___flmul+0)+0
  5674  06BE  00A8               	movf	(___flmul@grs+1),w
  5675  06BF  082F               	movwf	((??___flmul+0)+0+1)
  5676  06C0  00A9               	movf	(___flmul@grs+2),w
  5677  06C1  0830               	movwf	((??___flmul+0)+0+2)
  5678  06C2  00AA               	movf	(___flmul@grs+3),w
  5679  06C3  0831               	movwf	((??___flmul+0)+0+3)
  5680  06C4  00AB               	movlw	018h
  5681  06C5  3018               u2795:
  5682  06C6                     	clrc
  5683  06C6  1003               	rrf	(??___flmul+0)+3,f
  5684  06C7  0CAB               	rrf	(??___flmul+0)+2,f
  5685  06C8  0CAA               	rrf	(??___flmul+0)+1,f
  5686  06C9  0CA9               	rrf	(??___flmul+0)+0,f
  5687  06CA  0CA8               u2790:
  5688  06CB                     	addlw	-1
  5689  06CB  3EFF               	skipz
  5690  06CC  1D03               	goto	u2795
  5691  06CD  2EC6               	movf	0+(??___flmul+0)+0,w
  5692  06CE  0828               	addwf	(___flmul@prod),f
  5693  06CF  07B4               	movf	1+(??___flmul+0)+0,w
  5694  06D0  0829               	clrz
  5695  06D1  1103               	skipnc
  5696  06D2  1803               	addlw	1
  5697  06D3  3E01               	skipnz
  5698  06D4  1903               	goto	u2801
  5699  06D5  2ED7               	addwf	(___flmul@prod+1),f
  5700  06D6  07B5               u2801:
  5701  06D7                     	movf	2+(??___flmul+0)+0,w
  5702  06D7  082A               	clrz
  5703  06D8  1103               	skipnc
  5704  06D9  1803               	addlw	1
  5705  06DA  3E01               	skipnz
  5706  06DB  1903               	goto	u2802
  5707  06DC  2EDE               	addwf	(___flmul@prod+2),f
  5708  06DD  07B6               u2802:
  5709  06DE                     	movf	3+(??___flmul+0)+0,w
  5710  06DE  082B               	clrz
  5711  06DF  1103               	skipnc
  5712  06E0  1803               	addlw	1
  5713  06E1  3E01               	skipnz
  5714  06E2  1903               	goto	u2803
  5715  06E3  2EE5               	addwf	(___flmul@prod+3),f
  5716  06E4  07B7               u2803:
  5717  06E5                     
  5718                           	line	146
  5719                           	
  5720                           l1875:	
  5721  06E5                     	movlw	08h
  5722  06E5  3008               	movwf	(??___flmul+0)+0
  5723  06E6  00A8               u2815:
  5724  06E7                     	clrc
  5725  06E7  1003               	rlf	(___flmul@grs),f
  5726  06E8  0DAE               	rlf	(___flmul@grs+1),f
  5727  06E9  0DAF               	rlf	(___flmul@grs+2),f
  5728  06EA  0DB0               	rlf	(___flmul@grs+3),f
  5729  06EB  0DB1               	decfsz	(??___flmul+0)+0
  5730  06EC  0BA8               	goto	u2815
  5731  06ED  2EE7               	line	149
  5732                           	
  5733                           l1877:	
  5734  06EE                     	movf	(___flmul@bexp),w
  5735  06EE  0833               	addwf	(___flmul@aexp),w
  5736  06EF  0732               	movwf	(??___flmul+0)+0
  5737  06F0  00A8               	clrf	(??___flmul+0)+0+1
  5738  06F1  01A9               	rlf	1+(??___flmul+0)+0,f
  5739  06F2  0DA9               	
  5740                           	movf	0+(??___flmul+0)+0,w
  5741  06F3  0828               	addlw	low(-126)
  5742  06F4  3E82               	movwf	(___flmul@temp)
  5743  06F5  00B8               	movf	1+(??___flmul+0)+0,w
  5744  06F6  0829               	skipnc
  5745  06F7  1803               	addlw	1
  5746  06F8  3E01               	addlw	high(-126)
  5747  06F9  3EFF               	movwf	1+(___flmul@temp)
  5748  06FA  00B9               	line	152
  5749                           	goto	l1889
  5750  06FB  2F1B               	
  5751                           l567:	
  5752  06FC                     	line	153
  5753                           	
  5754                           l1879:	
  5755  06FC                     	movlw	01h
  5756  06FC  3001               	movwf	(??___flmul+0)+0
  5757  06FD  00A8               u2825:
  5758  06FE                     	clrc
  5759  06FE  1003               	rlf	(___flmul@prod),f
  5760  06FF  0DB4               	rlf	(___flmul@prod+1),f
  5761  0700  0DB5               	rlf	(___flmul@prod+2),f
  5762  0701  0DB6               	rlf	(___flmul@prod+3),f
  5763  0702  0DB7               	decfsz	(??___flmul+0)+0
  5764  0703  0BA8               	goto	u2825
  5765  0704  2EFE               	line	154
  5766                           	
  5767                           l1881:	
  5768  0705                     	btfss	(___flmul@grs+3),(31)&7
  5769  0705  1FB1               	goto	u2831
  5770  0706  2F08               	goto	u2830
  5771  0707  2F09               u2831:
  5772  0708                     	goto	l1885
  5773  0708  2F0B               u2830:
  5774  0709                     	line	155
  5775                           	
  5776                           l1883:	
  5777  0709                     	bsf	(___flmul@prod)+(0/8),(0)&7
  5778  0709  1434               	goto	l1885
  5779  070A  2F0B               	line	156
  5780                           	
  5781                           l568:	
  5782  070B                     	line	157
  5783                           	
  5784                           l1885:	
  5785  070B                     	movlw	01h
  5786  070B  3001               	movwf	(??___flmul+0)+0
  5787  070C  00A8               u2845:
  5788  070D                     	clrc
  5789  070D  1003               	rlf	(___flmul@grs),f
  5790  070E  0DAE               	rlf	(___flmul@grs+1),f
  5791  070F  0DAF               	rlf	(___flmul@grs+2),f
  5792  0710  0DB0               	rlf	(___flmul@grs+3),f
  5793  0711  0DB1               	decfsz	(??___flmul+0)+0
  5794  0712  0BA8               	goto	u2845
  5795  0713  2F0D               	line	158
  5796                           	
  5797                           l1887:	
  5798  0714                     	movlw	0FFh
  5799  0714  30FF               	addwf	(___flmul@temp),f
  5800  0715  07B8               	skipnc
  5801  0716  1803               	incf	(___flmul@temp+1),f
  5802  0717  0AB9               	movlw	0FFh
  5803  0718  30FF               	addwf	(___flmul@temp+1),f
  5804  0719  07B9               	goto	l1889
  5805  071A  2F1B               	line	159
  5806                           	
  5807                           l566:	
  5808  071B                     	line	152
  5809                           	
  5810                           l1889:	
  5811  071B                     	btfss	(___flmul@prod+2),(23)&7
  5812  071B  1FB6               	goto	u2851
  5813  071C  2F1E               	goto	u2850
  5814  071D  2F1F               u2851:
  5815  071E                     	goto	l1879
  5816  071E  2EFC               u2850:
  5817  071F                     	goto	l1891
  5818  071F  2F20               	
  5819                           l569:	
  5820  0720                     	line	163
  5821                           	
  5822                           l1891:	
  5823  0720                     	clrf	(___flmul@aexp)
  5824  0720  01B2               	line	164
  5825                           	
  5826                           l1893:	
  5827  0721                     	btfss	(___flmul@grs+3),(31)&7
  5828  0721  1FB1               	goto	u2861
  5829  0722  2F24               	goto	u2860
  5830  0723  2F25               u2861:
  5831  0724                     	goto	l1901
  5832  0724  2F45               u2860:
  5833  0725                     	line	165
  5834                           	
  5835                           l1895:	
  5836  0725                     	movlw	0FFh
  5837  0725  30FF               	andwf	(___flmul@grs),w
  5838  0726  052E               	movwf	(??___flmul+0)+0
  5839  0727  00A8               	movlw	0FFh
  5840  0728  30FF               	andwf	(___flmul@grs+1),w
  5841  0729  052F               	movwf	((??___flmul+0)+0+1)
  5842  072A  00A9               	movlw	0FFh
  5843  072B  30FF               	andwf	(___flmul@grs+2),w
  5844  072C  0530               	movwf	((??___flmul+0)+0+2)
  5845  072D  00AA               	movlw	07Fh
  5846  072E  307F               	andwf	(___flmul@grs+3),w
  5847  072F  0531               	movwf	((??___flmul+0)+0+3)
  5848  0730  00AB               	movf	3+(??___flmul+0)+0,w
  5849  0731  082B               	iorwf	2+(??___flmul+0)+0,w
  5850  0732  042A               	iorwf	1+(??___flmul+0)+0,w
  5851  0733  0429               	iorwf	0+(??___flmul+0)+0,w
  5852  0734  0428               	skipnz
  5853  0735  1903               	goto	u2871
  5854  0736  2F38               	goto	u2870
  5855  0737  2F39               u2871:
  5856  0738                     	goto	l571
  5857  0738  2F3C               u2870:
  5858  0739                     	line	166
  5859                           	
  5860                           l1897:	
  5861  0739                     	clrf	(___flmul@aexp)
  5862  0739  01B2               	incf	(___flmul@aexp),f
  5863  073A  0AB2               	line	167
  5864                           	goto	l1901
  5865  073B  2F45               	line	168
  5866                           	
  5867                           l571:	
  5868  073C                     	line	169
  5869                           	btfss	(___flmul@prod),(0)&7
  5870  073C  1C34               	goto	u2881
  5871  073D  2F3F               	goto	u2880
  5872  073E  2F40               u2881:
  5873  073F                     	goto	l1901
  5874  073F  2F45               u2880:
  5875  0740                     	line	170
  5876                           	
  5877                           l1899:	
  5878  0740                     	clrf	(___flmul@aexp)
  5879  0740  01B2               	incf	(___flmul@aexp),f
  5880  0741  0AB2               	goto	l1901
  5881  0742  2F45               	line	171
  5882                           	
  5883                           l573:	
  5884  0743                     	goto	l1901
  5885  0743  2F45               	line	172
  5886                           	
  5887                           l572:	
  5888  0744                     	goto	l1901
  5889  0744  2F45               	line	173
  5890                           	
  5891                           l570:	
  5892  0745                     	line	174
  5893                           	
  5894                           l1901:	
  5895  0745                     	movf	((___flmul@aexp)),w
  5896  0745  0832               	btfsc	status,2
  5897  0746  1903               	goto	u2891
  5898  0747  2F49               	goto	u2890
  5899  0748  2F4A               u2891:
  5900  0749                     	goto	l1911
  5901  0749  2F7D               u2890:
  5902  074A                     	line	175
  5903                           	
  5904                           l1903:	
  5905  074A                     	movlw	01h
  5906  074A  3001               	addwf	(___flmul@prod),f
  5907  074B  07B4               	movlw	0
  5908  074C  3000               	skipnc
  5909  074D  1803               movlw 1
  5910  074E  3001               	addwf	(___flmul@prod+1),f
  5911  074F  07B5               	movlw	0
  5912  0750  3000               	skipnc
  5913  0751  1803               movlw 1
  5914  0752  3001               	addwf	(___flmul@prod+2),f
  5915  0753  07B6               	movlw	0
  5916  0754  3000               	skipnc
  5917  0755  1803               movlw 1
  5918  0756  3001               	addwf	(___flmul@prod+3),f
  5919  0757  07B7               	line	176
  5920                           	
  5921                           l1905:	
  5922  0758                     	btfss	(___flmul@prod+3),(24)&7
  5923  0758  1C37               	goto	u2901
  5924  0759  2F5B               	goto	u2900
  5925  075A  2F5C               u2901:
  5926  075B                     	goto	l1911
  5927  075B  2F7D               u2900:
  5928  075C                     	line	177
  5929                           	
  5930                           l1907:	
  5931  075C                     	movf	(___flmul@prod),w
  5932  075C  0834               	movwf	(??___flmul+0)+0
  5933  075D  00A8               	movf	(___flmul@prod+1),w
  5934  075E  0835               	movwf	((??___flmul+0)+0+1)
  5935  075F  00A9               	movf	(___flmul@prod+2),w
  5936  0760  0836               	movwf	((??___flmul+0)+0+2)
  5937  0761  00AA               	movf	(___flmul@prod+3),w
  5938  0762  0837               	movwf	((??___flmul+0)+0+3)
  5939  0763  00AB               	movlw	01h
  5940  0764  3001               	movwf	(??___flmul+4)+0
  5941  0765  00AC               u2915:
  5942  0766                     	rlf	(??___flmul+0)+3,w
  5943  0766  0D2B               	rrf	(??___flmul+0)+3,f
  5944  0767  0CAB               	rrf	(??___flmul+0)+2,f
  5945  0768  0CAA               	rrf	(??___flmul+0)+1,f
  5946  0769  0CA9               	rrf	(??___flmul+0)+0,f
  5947  076A  0CA8               u2910:
  5948  076B                     	decfsz	(??___flmul+4)+0,f
  5949  076B  0BAC               	goto	u2915
  5950  076C  2F66               	movf	3+(??___flmul+0)+0,w
  5951  076D  082B               	movwf	(___flmul@prod+3)
  5952  076E  00B7               	movf	2+(??___flmul+0)+0,w
  5953  076F  082A               	movwf	(___flmul@prod+2)
  5954  0770  00B6               	movf	1+(??___flmul+0)+0,w
  5955  0771  0829               	movwf	(___flmul@prod+1)
  5956  0772  00B5               	movf	0+(??___flmul+0)+0,w
  5957  0773  0828               	movwf	(___flmul@prod)
  5958  0774  00B4               
  5959                           	line	178
  5960                           	
  5961                           l1909:	
  5962  0775                     	movlw	01h
  5963  0775  3001               	addwf	(___flmul@temp),f
  5964  0776  07B8               	skipnc
  5965  0777  1803               	incf	(___flmul@temp+1),f
  5966  0778  0AB9               	movlw	0
  5967  0779  3000               	addwf	(___flmul@temp+1),f
  5968  077A  07B9               	goto	l1911
  5969  077B  2F7D               	line	179
  5970                           	
  5971                           l575:	
  5972  077C                     	goto	l1911
  5973  077C  2F7D               	line	180
  5974                           	
  5975                           l574:	
  5976  077D                     	line	183
  5977                           	
  5978                           l1911:	
  5979  077D                     	movf	(___flmul@temp+1),w
  5980  077D  0839               	xorlw	80h
  5981  077E  3A80               	movwf	btemp+1
  5982  077F  00FF               	movlw	(0)^80h
  5983  0780  3080               	subwf	btemp+1,w
  5984  0781  027F               	skipz
  5985  0782  1D03               	goto	u2925
  5986  0783  2F86               	movlw	0FFh
  5987  0784  30FF               	subwf	(___flmul@temp),w
  5988  0785  0238               u2925:
  5989  0786                     
  5990                           	skipc
  5991  0786  1C03               	goto	u2921
  5992  0787  2F89               	goto	u2920
  5993  0788  2F8A               u2921:
  5994  0789                     	goto	l1915
  5995  0789  2F95               u2920:
  5996  078A                     	line	184
  5997                           	
  5998                           l1913:	
  5999  078A                     	movlw	07Fh
  6000  078A  307F               	bcf	status, 5	;RP0=0, select bank0
  6001  078B  1283               	bcf	status, 6	;RP1=0, select bank0
  6002  078C  1303               	movwf	(___flmul@prod+3)
  6003  078D  00B7               	movlw	080h
  6004  078E  3080               	movwf	(___flmul@prod+2)
  6005  078F  00B6               	movlw	0
  6006  0790  3000               	movwf	(___flmul@prod+1)
  6007  0791  00B5               	movlw	0
  6008  0792  3000               	movwf	(___flmul@prod)
  6009  0793  00B4               
  6010                           	line	185
  6011                           	goto	l577
  6012  0794  2FCC               	line	187
  6013                           	
  6014                           l576:	
  6015  0795                     	
  6016                           l1915:	
  6017  0795                     	bcf	status, 5	;RP0=0, select bank0
  6018  0795  1283               	bcf	status, 6	;RP1=0, select bank0
  6019  0796  1303               	movf	(___flmul@temp+1),w
  6020  0797  0839               	xorlw	80h
  6021  0798  3A80               	movwf	btemp+1
  6022  0799  00FF               	movlw	(0)^80h
  6023  079A  3080               	subwf	btemp+1,w
  6024  079B  027F               	skipz
  6025  079C  1D03               	goto	u2935
  6026  079D  2FA0               	movlw	01h
  6027  079E  3001               	subwf	(___flmul@temp),w
  6028  079F  0238               u2935:
  6029  07A0                     
  6030                           	skipnc
  6031  07A0  1803               	goto	u2931
  6032  07A1  2FA3               	goto	u2930
  6033  07A2  2FA4               u2931:
  6034  07A3                     	goto	l1921
  6035  07A3  2FB0               u2930:
  6036  07A4                     	line	188
  6037                           	
  6038                           l1917:	
  6039  07A4                     	movlw	high highword(0)
  6040  07A4  3000               	bcf	status, 5	;RP0=0, select bank0
  6041  07A5  1283               	bcf	status, 6	;RP1=0, select bank0
  6042  07A6  1303               	movwf	(___flmul@prod+3)
  6043  07A7  00B7               	movlw	low highword(0)
  6044  07A8  3000               	movwf	(___flmul@prod+2)
  6045  07A9  00B6               	movlw	high(0)
  6046  07AA  3000               	movwf	(___flmul@prod+1)
  6047  07AB  00B5               	movlw	low(0)
  6048  07AC  3000               	movwf	(___flmul@prod)
  6049  07AD  00B4               
  6050                           	line	190
  6051                           	
  6052                           l1919:	
  6053  07AE                     	clrf	(___flmul@sign)
  6054  07AE  01AD               	line	191
  6055                           	goto	l577
  6056  07AF  2FCC               	line	192
  6057                           	
  6058                           l578:	
  6059  07B0                     	line	194
  6060                           	
  6061                           l1921:	
  6062  07B0                     	bcf	status, 5	;RP0=0, select bank0
  6063  07B0  1283               	bcf	status, 6	;RP1=0, select bank0
  6064  07B1  1303               	movf	(___flmul@temp),w
  6065  07B2  0838               	movwf	(??___flmul+0)+0
  6066  07B3  00A8               	movf	(??___flmul+0)+0,w
  6067  07B4  0828               	movwf	(___flmul@bexp)
  6068  07B5  00B3               	line	195
  6069                           	movlw	0FFh
  6070  07B6  30FF               	andwf	(___flmul@prod),f
  6071  07B7  05B4               	movlw	0FFh
  6072  07B8  30FF               	andwf	(___flmul@prod+1),f
  6073  07B9  05B5               	movlw	07Fh
  6074  07BA  307F               	andwf	(___flmul@prod+2),f
  6075  07BB  05B6               	movlw	0
  6076  07BC  3000               	andwf	(___flmul@prod+3),f
  6077  07BD  05B7               	line	196
  6078                           	
  6079                           l1923:	
  6080  07BE                     	btfss	(___flmul@bexp),(0)&7
  6081  07BE  1C33               	goto	u2941
  6082  07BF  2FC1               	goto	u2940
  6083  07C0  2FC2               u2941:
  6084  07C1                     	goto	l1927
  6085  07C1  2FC4               u2940:
  6086  07C2                     	line	197
  6087                           	
  6088                           l1925:	
  6089  07C2                     	bsf	0+(___flmul@prod)+02h+(7/8),(7)&7
  6090  07C2  17B6               	goto	l1927
  6091  07C3  2FC4               	line	198
  6092                           	
  6093                           l580:	
  6094  07C4                     	line	199
  6095                           	
  6096                           l1927:	
  6097  07C4                     	movf	(___flmul@bexp),w
  6098  07C4  0833               	movwf	(??___flmul+0)+0
  6099  07C5  00A8               	clrc
  6100  07C6  1003               	rrf	(??___flmul+0)+0,w
  6101  07C7  0C28               	movwf	(??___flmul+1)+0
  6102  07C8  00A9               	movf	(??___flmul+1)+0,w
  6103  07C9  0829               	movwf	0+(___flmul@prod)+03h
  6104  07CA  00B7               	goto	l577
  6105  07CB  2FCC               	line	200
  6106                           	
  6107                           l579:	
  6108  07CC                     	
  6109                           l577:	
  6110  07CC                     	line	201
  6111                           	movf	(___flmul@sign),w
  6112  07CC  082D               	movwf	(??___flmul+0)+0
  6113  07CD  00A8               	movf	(??___flmul+0)+0,w
  6114  07CE  0828               	iorwf	0+(___flmul@prod)+03h,f
  6115  07CF  04B7               	line	203
  6116                           	
  6117                           l1929:	
  6118  07D0                     	movf	(___flmul@prod+3),w
  6119  07D0  0837               	movwf	(?___flmul+3)
  6120  07D1  00A3               	movf	(___flmul@prod+2),w
  6121  07D2  0836               	movwf	(?___flmul+2)
  6122  07D3  00A2               	movf	(___flmul@prod+1),w
  6123  07D4  0835               	movwf	(?___flmul+1)
  6124  07D5  00A1               	movf	(___flmul@prod),w
  6125  07D6  0834               	movwf	(?___flmul)
  6126  07D7  00A0               
  6127                           	goto	l565
  6128  07D8  2FD9               	
  6129                           l1931:	
  6130  07D9                     	line	205
  6131                           	
  6132                           l565:	
  6133  07D9                     	return
  6134  07D9  0008               	opt stack 0
  6135                           GLOBAL	__end_of___flmul
  6136                           	__end_of___flmul:
  6137  07DA                     	signat	___flmul,8316
  6138                           	global	__Umul8_16
  6139                           
  6140 ;; *************** function __Umul8_16 *****************
  6141 ;; Defined at:
  6142 ;;		line 4 in file "C:\Program Files (x86)\Microchip\xc8\v2.00\pic\sources\c90\common\Umul8_16.c"
  6143 ;; Parameters:    Size  Location     Type
  6144 ;;  multiplier      1    wreg     unsigned char 
  6145 ;;  multiplicand    1    0[COMMON] unsigned char 
  6146 ;; Auto vars:     Size  Location     Type
  6147 ;;  multiplier      1    8[COMMON] unsigned char 
  6148 ;;  word_mpld       2    6[COMMON] unsigned int 
  6149 ;;  product         2    4[COMMON] unsigned int 
  6150 ;; Return value:  Size  Location     Type
  6151 ;;                  2    0[COMMON] unsigned int 
  6152 ;; Registers used:
  6153 ;;		wreg, status,2, status,0
  6154 ;; Tracked objects:
  6155 ;;		On entry : 0/0
  6156 ;;		On exit  : 0/0
  6157 ;;		Unchanged: 0/0
  6158 ;; Data sizes:     COMMON   BANK0   BANK1   BANK3   BANK2
  6159 ;;      Params:         2       0       0       0       0
  6160 ;;      Locals:         5       0       0       0       0
  6161 ;;      Temps:          2       0       0       0       0
  6162 ;;      Totals:         9       0       0       0       0
  6163 ;;Total ram usage:        9 bytes
  6164 ;; Hardware stack levels used:    1
  6165 ;; This function calls:
  6166 ;;		Nothing
  6167 ;; This function is called by:
  6168 ;;		___flmul
  6169 ;; This function uses a non-reentrant model
  6170 ;;
  6171                           psect	text11,local,class=CODE,delta=2,merge=1,group=1
  6172                           	file	"C:\Program Files (x86)\Microchip\xc8\v2.00\pic\sources\c90\common\Umul8_16.c"
  6173                           	line	4
  6174                           global __ptext11
  6175                           __ptext11:	;psect for function __Umul8_16
  6176  0955                     psect	text11
  6177                           	file	"C:\Program Files (x86)\Microchip\xc8\v2.00\pic\sources\c90\common\Umul8_16.c"
  6178                           	line	4
  6179                           	global	__size_of__Umul8_16
  6180                           	__size_of__Umul8_16	equ	__end_of__Umul8_16-__Umul8_16
  6181  002A                     	
  6182                           __Umul8_16:	
  6183  0955                     ;incstack = 0
  6184                           	opt	stack 5
  6185                           ; Regs used in __Umul8_16: [wreg+status,2+status,0]
  6186                           ;__Umul8_16@multiplier stored from wreg
  6187                           	movwf	(__Umul8_16@multiplier)
  6188  0955  00F8               	line	5
  6189                           	
  6190                           l1589:	
  6191  0956                     	clrf	(__Umul8_16@product)
  6192  0956  01F4               	clrf	(__Umul8_16@product+1)
  6193  0957  01F5               	line	6
  6194                           	
  6195                           l1591:	
  6196  0958                     	movf	(__Umul8_16@multiplicand),w
  6197  0958  0870               	movwf	(??__Umul8_16+0)+0
  6198  0959  00F2               	clrf	(??__Umul8_16+0)+0+1
  6199  095A  01F3               	movf	0+(??__Umul8_16+0)+0,w
  6200  095B  0872               	movwf	(__Umul8_16@word_mpld)
  6201  095C  00F6               	movf	1+(??__Umul8_16+0)+0,w
  6202  095D  0873               	movwf	(__Umul8_16@word_mpld+1)
  6203  095E  00F7               	goto	l1593
  6204  095F  2960               	line	50
  6205                           	
  6206                           l602:	
  6207  0960                     	line	51
  6208                           	
  6209                           l1593:	
  6210  0960                     	btfss	(__Umul8_16@multiplier),(0)&7
  6211  0960  1C78               	goto	u2131
  6212  0961  2963               	goto	u2130
  6213  0962  2964               u2131:
  6214  0963                     	goto	l603
  6215  0963  296A               u2130:
  6216  0964                     	line	52
  6217                           	
  6218                           l1595:	
  6219  0964                     	movf	(__Umul8_16@word_mpld),w
  6220  0964  0876               	addwf	(__Umul8_16@product),f
  6221  0965  07F4               	skipnc
  6222  0966  1803               	incf	(__Umul8_16@product+1),f
  6223  0967  0AF5               	movf	(__Umul8_16@word_mpld+1),w
  6224  0968  0877               	addwf	(__Umul8_16@product+1),f
  6225  0969  07F5               	line	53
  6226                           	
  6227                           l603:	
  6228  096A                     	line	54
  6229                           	movlw	01h
  6230  096A  3001               	
  6231                           u2145:
  6232  096B                     	clrc
  6233  096B  1003               	rlf	(__Umul8_16@word_mpld),f
  6234  096C  0DF6               	rlf	(__Umul8_16@word_mpld+1),f
  6235  096D  0DF7               	addlw	-1
  6236  096E  3EFF               	skipz
  6237  096F  1D03               	goto	u2145
  6238  0970  296B               	line	55
  6239                           	clrc
  6240  0971  1003               	rrf	(__Umul8_16@multiplier),f
  6241  0972  0CF8               
  6242                           	line	56
  6243                           	
  6244                           l1597:	
  6245  0973                     	movf	((__Umul8_16@multiplier)),w
  6246  0973  0878               	btfss	status,2
  6247  0974  1D03               	goto	u2151
  6248  0975  2977               	goto	u2150
  6249  0976  2978               u2151:
  6250  0977                     	goto	l1593
  6251  0977  2960               u2150:
  6252  0978                     	goto	l1599
  6253  0978  2979               	
  6254                           l604:	
  6255  0979                     	line	59
  6256                           	
  6257                           l1599:	
  6258  0979                     	movf	(__Umul8_16@product+1),w
  6259  0979  0875               	movwf	(?__Umul8_16+1)
  6260  097A  00F1               	movf	(__Umul8_16@product),w
  6261  097B  0874               	movwf	(?__Umul8_16)
  6262  097C  00F0               	goto	l605
  6263  097D  297E               	
  6264                           l1601:	
  6265  097E                     	line	60
  6266                           	
  6267                           l605:	
  6268  097E                     	return
  6269  097E  0008               	opt stack 0
  6270                           GLOBAL	__end_of__Umul8_16
  6271                           	__end_of__Umul8_16:
  6272  097F                     	signat	__Umul8_16,8314
  6273                           	global	___fldiv
  6274                           
  6275 ;; *************** function ___fldiv *****************
  6276 ;; Defined at:
  6277 ;;		line 8 in file "C:\Program Files (x86)\Microchip\xc8\v2.00\pic\sources\c90\common\sprcdiv.c"
  6278 ;; Parameters:    Size  Location     Type
  6279 ;;  a               4   26[BANK0 ] unsigned int 
  6280 ;;  b               4   30[BANK0 ] unsigned int 
  6281 ;; Auto vars:     Size  Location     Type
  6282 ;;  grs             4   46[BANK0 ] unsigned long 
  6283 ;;  rem             4   39[BANK0 ] unsigned long 
  6284 ;;  new_exp         2   44[BANK0 ] int 
  6285 ;;  aexp            1   51[BANK0 ] unsigned char 
  6286 ;;  bexp            1   50[BANK0 ] unsigned char 
  6287 ;;  sign            1   43[BANK0 ] unsigned char 
  6288 ;; Return value:  Size  Location     Type
  6289 ;;                  4   26[BANK0 ] unsigned char 
  6290 ;; Registers used:
  6291 ;;		wreg, status,2, status,0, btemp+1
  6292 ;; Tracked objects:
  6293 ;;		On entry : 0/0
  6294 ;;		On exit  : 0/0
  6295 ;;		Unchanged: 0/0
  6296 ;; Data sizes:     COMMON   BANK0   BANK1   BANK3   BANK2
  6297 ;;      Params:         0       8       0       0       0
  6298 ;;      Locals:         0      13       0       0       0
  6299 ;;      Temps:          0       5       0       0       0
  6300 ;;      Totals:         0      26       0       0       0
  6301 ;;Total ram usage:       26 bytes
  6302 ;; Hardware stack levels used:    1
  6303 ;; This function calls:
  6304 ;;		Nothing
  6305 ;; This function is called by:
  6306 ;;		_watch_heat
  6307 ;; This function uses a non-reentrant model
  6308 ;;
  6309                           psect	text12,local,class=CODE,delta=2,merge=1,group=1
  6310                           	file	"C:\Program Files (x86)\Microchip\xc8\v2.00\pic\sources\c90\common\sprcdiv.c"
  6311                           	line	8
  6312                           global __ptext12
  6313                           __ptext12:	;psect for function ___fldiv
  6314  0DF7                     psect	text12
  6315                           	file	"C:\Program Files (x86)\Microchip\xc8\v2.00\pic\sources\c90\common\sprcdiv.c"
  6316                           	line	8
  6317                           	global	__size_of___fldiv
  6318                           	__size_of___fldiv	equ	__end_of___fldiv-___fldiv
  6319  0209                     	
  6320                           ___fldiv:	
  6321  0DF7                     ;incstack = 0
  6322                           	opt	stack 6
  6323                           ; Regs used in ___fldiv: [wreg+status,2+status,0+btemp+1]
  6324                           	line	26
  6325                           	
  6326                           l1651:	
  6327  0DF7                     	bcf	status, 5	;RP0=0, select bank0
  6328  0DF7  1283               	bcf	status, 6	;RP1=0, select bank0
  6329  0DF8  1303               	movf	0+(___fldiv@b)+03h,w
  6330  0DF9  0841               	andlw	080h
  6331  0DFA  3980               	movwf	(??___fldiv+0)+0
  6332  0DFB  00C2               	movf	(??___fldiv+0)+0,w
  6333  0DFC  0842               	movwf	(___fldiv@sign)
  6334  0DFD  00CB               	line	27
  6335                           	
  6336                           l1653:	
  6337  0DFE                     	movf	0+(___fldiv@b)+03h,w
  6338  0DFE  0841               	movwf	(??___fldiv+0)+0
  6339  0DFF  00C2               	addwf	(??___fldiv+0)+0,w
  6340  0E00  0742               	movwf	(??___fldiv+1)+0
  6341  0E01  00C3               	movf	(??___fldiv+1)+0,w
  6342  0E02  0843               	movwf	(___fldiv@bexp)
  6343  0E03  00D2               	line	28
  6344                           	
  6345                           l1655:	
  6346  0E04                     	btfss	0+(___fldiv@b)+02h,(7)&7
  6347  0E04  1FC0               	goto	u2291
  6348  0E05  2E07               	goto	u2290
  6349  0E06  2E08               u2291:
  6350  0E07                     	goto	l1659
  6351  0E07  2E0A               u2290:
  6352  0E08                     	line	29
  6353                           	
  6354                           l1657:	
  6355  0E08                     	bsf	(___fldiv@bexp)+(0/8),(0)&7
  6356  0E08  1452               	goto	l1659
  6357  0E09  2E0A               	line	30
  6358                           	
  6359                           l518:	
  6360  0E0A                     	line	33
  6361                           	
  6362                           l1659:	
  6363  0E0A                     	movf	((___fldiv@bexp)),w
  6364  0E0A  0852               	btfsc	status,2
  6365  0E0B  1903               	goto	u2301
  6366  0E0C  2E0E               	goto	u2300
  6367  0E0D  2E0F               u2301:
  6368  0E0E                     	goto	l1669
  6369  0E0E  2E20               u2300:
  6370  0E0F                     	line	35
  6371                           	
  6372                           l1661:	
  6373  0E0F                     		incf	((___fldiv@bexp)),w
  6374  0E0F  0A52               	btfss	status,2
  6375  0E10  1D03               	goto	u2311
  6376  0E11  2E13               	goto	u2310
  6377  0E12  2E14               u2311:
  6378  0E13                     	goto	l1665
  6379  0E13  2E1D               u2310:
  6380  0E14                     	line	37
  6381                           	
  6382                           l1663:	
  6383  0E14                     	movlw	0x0
  6384  0E14  3000               	movwf	(___fldiv@b+3)
  6385  0E15  00C1               	movlw	0x0
  6386  0E16  3000               	movwf	(___fldiv@b+2)
  6387  0E17  00C0               	movlw	0x0
  6388  0E18  3000               	movwf	(___fldiv@b+1)
  6389  0E19  00BF               	movlw	0x0
  6390  0E1A  3000               	movwf	(___fldiv@b)
  6391  0E1B  00BE               
  6392                           	goto	l1665
  6393  0E1C  2E1D               	line	38
  6394                           	
  6395                           l520:	
  6396  0E1D                     	line	40
  6397                           	
  6398                           l1665:	
  6399  0E1D                     	bsf	(___fldiv@b)+(23/8),(23)&7
  6400  0E1D  17C0               	line	42
  6401                           	
  6402                           l1667:	
  6403  0E1E                     	clrf	0+(___fldiv@b)+03h
  6404  0E1E  01C1               	line	43
  6405                           	goto	l1671
  6406  0E1F  2E29               	line	44
  6407                           	
  6408                           l519:	
  6409  0E20                     	line	46
  6410                           	
  6411                           l1669:	
  6412  0E20                     	movlw	0x0
  6413  0E20  3000               	movwf	(___fldiv@b+3)
  6414  0E21  00C1               	movlw	0x0
  6415  0E22  3000               	movwf	(___fldiv@b+2)
  6416  0E23  00C0               	movlw	0x0
  6417  0E24  3000               	movwf	(___fldiv@b+1)
  6418  0E25  00BF               	movlw	0x0
  6419  0E26  3000               	movwf	(___fldiv@b)
  6420  0E27  00BE               
  6421                           	goto	l1671
  6422  0E28  2E29               	line	47
  6423                           	
  6424                           l521:	
  6425  0E29                     	line	49
  6426                           	
  6427                           l1671:	
  6428  0E29                     	movf	0+(___fldiv@a)+03h,w
  6429  0E29  083D               	andlw	080h
  6430  0E2A  3980               	movwf	(??___fldiv+0)+0
  6431  0E2B  00C2               	movf	(??___fldiv+0)+0,w
  6432  0E2C  0842               	xorwf	(___fldiv@sign),f
  6433  0E2D  06CB               	line	50
  6434                           	
  6435                           l1673:	
  6436  0E2E                     	movf	0+(___fldiv@a)+03h,w
  6437  0E2E  083D               	movwf	(??___fldiv+0)+0
  6438  0E2F  00C2               	addwf	(??___fldiv+0)+0,w
  6439  0E30  0742               	movwf	(??___fldiv+1)+0
  6440  0E31  00C3               	movf	(??___fldiv+1)+0,w
  6441  0E32  0843               	movwf	(___fldiv@aexp)
  6442  0E33  00D3               	line	51
  6443                           	
  6444                           l1675:	
  6445  0E34                     	btfss	0+(___fldiv@a)+02h,(7)&7
  6446  0E34  1FBC               	goto	u2321
  6447  0E35  2E37               	goto	u2320
  6448  0E36  2E38               u2321:
  6449  0E37                     	goto	l1679
  6450  0E37  2E3A               u2320:
  6451  0E38                     	line	52
  6452                           	
  6453                           l1677:	
  6454  0E38                     	bsf	(___fldiv@aexp)+(0/8),(0)&7
  6455  0E38  1453               	goto	l1679
  6456  0E39  2E3A               	line	53
  6457                           	
  6458                           l522:	
  6459  0E3A                     	line	56
  6460                           	
  6461                           l1679:	
  6462  0E3A                     	movf	((___fldiv@aexp)),w
  6463  0E3A  0853               	btfsc	status,2
  6464  0E3B  1903               	goto	u2331
  6465  0E3C  2E3E               	goto	u2330
  6466  0E3D  2E3F               u2331:
  6467  0E3E                     	goto	l1689
  6468  0E3E  2E50               u2330:
  6469  0E3F                     	line	58
  6470                           	
  6471                           l1681:	
  6472  0E3F                     		incf	((___fldiv@aexp)),w
  6473  0E3F  0A53               	btfss	status,2
  6474  0E40  1D03               	goto	u2341
  6475  0E41  2E43               	goto	u2340
  6476  0E42  2E44               u2341:
  6477  0E43                     	goto	l1685
  6478  0E43  2E4D               u2340:
  6479  0E44                     	line	60
  6480                           	
  6481                           l1683:	
  6482  0E44                     	movlw	0x0
  6483  0E44  3000               	movwf	(___fldiv@a+3)
  6484  0E45  00BD               	movlw	0x0
  6485  0E46  3000               	movwf	(___fldiv@a+2)
  6486  0E47  00BC               	movlw	0x0
  6487  0E48  3000               	movwf	(___fldiv@a+1)
  6488  0E49  00BB               	movlw	0x0
  6489  0E4A  3000               	movwf	(___fldiv@a)
  6490  0E4B  00BA               
  6491                           	goto	l1685
  6492  0E4C  2E4D               	line	61
  6493                           	
  6494                           l524:	
  6495  0E4D                     	line	63
  6496                           	
  6497                           l1685:	
  6498  0E4D                     	bsf	(___fldiv@a)+(23/8),(23)&7
  6499  0E4D  17BC               	line	65
  6500                           	
  6501                           l1687:	
  6502  0E4E                     	clrf	0+(___fldiv@a)+03h
  6503  0E4E  01BD               	line	66
  6504                           	goto	l525
  6505  0E4F  2E58               	line	67
  6506                           	
  6507                           l523:	
  6508  0E50                     	line	69
  6509                           	
  6510                           l1689:	
  6511  0E50                     	movlw	0x0
  6512  0E50  3000               	movwf	(___fldiv@a+3)
  6513  0E51  00BD               	movlw	0x0
  6514  0E52  3000               	movwf	(___fldiv@a+2)
  6515  0E53  00BC               	movlw	0x0
  6516  0E54  3000               	movwf	(___fldiv@a+1)
  6517  0E55  00BB               	movlw	0x0
  6518  0E56  3000               	movwf	(___fldiv@a)
  6519  0E57  00BA               
  6520                           	line	70
  6521                           	
  6522                           l525:	
  6523  0E58                     	line	75
  6524                           	movf	(___fldiv@a+3),w
  6525  0E58  083D               	iorwf	(___fldiv@a+2),w
  6526  0E59  043C               	iorwf	(___fldiv@a+1),w
  6527  0E5A  043B               	iorwf	(___fldiv@a),w
  6528  0E5B  043A               	skipz
  6529  0E5C  1D03               	goto	u2351
  6530  0E5D  2E5F               	goto	u2350
  6531  0E5E  2E60               u2351:
  6532  0E5F                     	goto	l1699
  6533  0E5F  2E7A               u2350:
  6534  0E60                     	line	76
  6535                           	
  6536                           l1691:	
  6537  0E60                     	movlw	high highword(0)
  6538  0E60  3000               	movwf	(___fldiv@b+3)
  6539  0E61  00C1               	movlw	low highword(0)
  6540  0E62  3000               	movwf	(___fldiv@b+2)
  6541  0E63  00C0               	movlw	high(0)
  6542  0E64  3000               	movwf	(___fldiv@b+1)
  6543  0E65  00BF               	movlw	low(0)
  6544  0E66  3000               	movwf	(___fldiv@b)
  6545  0E67  00BE               
  6546                           	line	77
  6547                           	movlw	080h
  6548  0E68  3080               	iorwf	0+(___fldiv@b)+02h,f
  6549  0E69  04C0               	movlw	07Fh
  6550  0E6A  307F               	iorwf	1+(___fldiv@b)+02h,f
  6551  0E6B  04C1               	line	78
  6552                           	
  6553                           l1693:	
  6554  0E6C                     	movf	(___fldiv@sign),w
  6555  0E6C  084B               	movwf	(??___fldiv+0)+0
  6556  0E6D  00C2               	movf	(??___fldiv+0)+0,w
  6557  0E6E  0842               	iorwf	0+(___fldiv@b)+03h,f
  6558  0E6F  04C1               	line	79
  6559                           	
  6560                           l1695:	
  6561  0E70                     	movf	(___fldiv@b+3),w
  6562  0E70  0841               	movwf	(?___fldiv+3)
  6563  0E71  00BD               	movf	(___fldiv@b+2),w
  6564  0E72  0840               	movwf	(?___fldiv+2)
  6565  0E73  00BC               	movf	(___fldiv@b+1),w
  6566  0E74  083F               	movwf	(?___fldiv+1)
  6567  0E75  00BB               	movf	(___fldiv@b),w
  6568  0E76  083E               	movwf	(?___fldiv)
  6569  0E77  00BA               
  6570                           	goto	l527
  6571  0E78  2FFF               	
  6572                           l1697:	
  6573  0E79                     	goto	l527
  6574  0E79  2FFF               	line	80
  6575                           	
  6576                           l526:	
  6577  0E7A                     	line	83
  6578                           	
  6579                           l1699:	
  6580  0E7A                     	movf	((___fldiv@bexp)),w
  6581  0E7A  0852               	btfss	status,2
  6582  0E7B  1D03               	goto	u2361
  6583  0E7C  2E7E               	goto	u2360
  6584  0E7D  2E7F               u2361:
  6585  0E7E                     	goto	l1705
  6586  0E7E  2E91               u2360:
  6587  0E7F                     	line	84
  6588                           	
  6589                           l1701:	
  6590  0E7F                     	movlw	high highword(0)
  6591  0E7F  3000               	movwf	(___fldiv@b+3)
  6592  0E80  00C1               	movlw	low highword(0)
  6593  0E81  3000               	movwf	(___fldiv@b+2)
  6594  0E82  00C0               	movlw	high(0)
  6595  0E83  3000               	movwf	(___fldiv@b+1)
  6596  0E84  00BF               	movlw	low(0)
  6597  0E85  3000               	movwf	(___fldiv@b)
  6598  0E86  00BE               
  6599                           	line	85
  6600                           	movf	(___fldiv@b+3),w
  6601  0E87  0841               	movwf	(?___fldiv+3)
  6602  0E88  00BD               	movf	(___fldiv@b+2),w
  6603  0E89  0840               	movwf	(?___fldiv+2)
  6604  0E8A  00BC               	movf	(___fldiv@b+1),w
  6605  0E8B  083F               	movwf	(?___fldiv+1)
  6606  0E8C  00BB               	movf	(___fldiv@b),w
  6607  0E8D  083E               	movwf	(?___fldiv)
  6608  0E8E  00BA               
  6609                           	goto	l527
  6610  0E8F  2FFF               	
  6611                           l1703:	
  6612  0E90                     	goto	l527
  6613  0E90  2FFF               	line	86
  6614                           	
  6615                           l528:	
  6616  0E91                     	line	89
  6617                           	
  6618                           l1705:	
  6619  0E91                     	movf	(___fldiv@aexp),w
  6620  0E91  0853               	movwf	(??___fldiv+0)+0
  6621  0E92  00C2               	clrf	(??___fldiv+0)+0+1
  6622  0E93  01C3               	comf	(??___fldiv+0)+0,f
  6623  0E94  09C2               	comf	(??___fldiv+0)+1,f
  6624  0E95  09C3               	incf	(??___fldiv+0)+0,f
  6625  0E96  0AC2               	skipnz
  6626  0E97  1903               	incf	(??___fldiv+0)+1,f
  6627  0E98  0AC3               	movf	(___fldiv@bexp),w
  6628  0E99  0852               	addwf	0+(??___fldiv+0)+0,w
  6629  0E9A  0742               	movwf	(??___fldiv+2)+0
  6630  0E9B  00C4               	movf	1+(??___fldiv+0)+0,w
  6631  0E9C  0843               	skipnc
  6632  0E9D  1803               	incf	1+(??___fldiv+0)+0,w
  6633  0E9E  0A43               	movwf	((??___fldiv+2)+0)+1
  6634  0E9F  00C5               	movf	0+(??___fldiv+2)+0,w
  6635  0EA0  0844               	addlw	low(07Fh)
  6636  0EA1  3E7F               	movwf	(___fldiv@new_exp)
  6637  0EA2  00CC               	movf	1+(??___fldiv+2)+0,w
  6638  0EA3  0845               	skipnc
  6639  0EA4  1803               	addlw	1
  6640  0EA5  3E01               	addlw	high(07Fh)
  6641  0EA6  3E00               	movwf	1+(___fldiv@new_exp)
  6642  0EA7  00CD               	line	92
  6643                           	
  6644                           l1707:	
  6645  0EA8                     	movf	(___fldiv@b+3),w
  6646  0EA8  0841               	movwf	(___fldiv@rem+3)
  6647  0EA9  00CA               	movf	(___fldiv@b+2),w
  6648  0EAA  0840               	movwf	(___fldiv@rem+2)
  6649  0EAB  00C9               	movf	(___fldiv@b+1),w
  6650  0EAC  083F               	movwf	(___fldiv@rem+1)
  6651  0EAD  00C8               	movf	(___fldiv@b),w
  6652  0EAE  083E               	movwf	(___fldiv@rem)
  6653  0EAF  00C7               
  6654                           	line	93
  6655                           	
  6656                           l1709:	
  6657  0EB0                     	movlw	high highword(0)
  6658  0EB0  3000               	movwf	(___fldiv@b+3)
  6659  0EB1  00C1               	movlw	low highword(0)
  6660  0EB2  3000               	movwf	(___fldiv@b+2)
  6661  0EB3  00C0               	movlw	high(0)
  6662  0EB4  3000               	movwf	(___fldiv@b+1)
  6663  0EB5  00BF               	movlw	low(0)
  6664  0EB6  3000               	movwf	(___fldiv@b)
  6665  0EB7  00BE               
  6666                           	line	94
  6667                           	
  6668                           l1711:	
  6669  0EB8                     	movlw	high highword(0)
  6670  0EB8  3000               	movwf	(___fldiv@grs+3)
  6671  0EB9  00D1               	movlw	low highword(0)
  6672  0EBA  3000               	movwf	(___fldiv@grs+2)
  6673  0EBB  00D0               	movlw	high(0)
  6674  0EBC  3000               	movwf	(___fldiv@grs+1)
  6675  0EBD  00CF               	movlw	low(0)
  6676  0EBE  3000               	movwf	(___fldiv@grs)
  6677  0EBF  00CE               
  6678                           	line	96
  6679                           	
  6680                           l1713:	
  6681  0EC0                     	clrf	(___fldiv@aexp)
  6682  0EC0  01D3               	line	97
  6683                           	goto	l1733
  6684  0EC1  2F10               	
  6685                           l530:	
  6686  0EC2                     	line	100
  6687                           	
  6688                           l1715:	
  6689  0EC2                     	movf	((___fldiv@aexp)),w
  6690  0EC2  0853               	btfsc	status,2
  6691  0EC3  1903               	goto	u2371
  6692  0EC4  2EC6               	goto	u2370
  6693  0EC5  2EC7               u2371:
  6694  0EC6                     	goto	l1725
  6695  0EC6  2EE9               u2370:
  6696  0EC7                     	line	101
  6697                           	
  6698                           l1717:	
  6699  0EC7                     	movlw	01h
  6700  0EC7  3001               	movwf	(??___fldiv+0)+0
  6701  0EC8  00C2               u2385:
  6702  0EC9                     	clrc
  6703  0EC9  1003               	rlf	(___fldiv@rem),f
  6704  0ECA  0DC7               	rlf	(___fldiv@rem+1),f
  6705  0ECB  0DC8               	rlf	(___fldiv@rem+2),f
  6706  0ECC  0DC9               	rlf	(___fldiv@rem+3),f
  6707  0ECD  0DCA               	decfsz	(??___fldiv+0)+0
  6708  0ECE  0BC2               	goto	u2385
  6709  0ECF  2EC9               	line	102
  6710                           	movlw	01h
  6711  0ED0  3001               	movwf	(??___fldiv+0)+0
  6712  0ED1  00C2               u2395:
  6713  0ED2                     	clrc
  6714  0ED2  1003               	rlf	(___fldiv@b),f
  6715  0ED3  0DBE               	rlf	(___fldiv@b+1),f
  6716  0ED4  0DBF               	rlf	(___fldiv@b+2),f
  6717  0ED5  0DC0               	rlf	(___fldiv@b+3),f
  6718  0ED6  0DC1               	decfsz	(??___fldiv+0)+0
  6719  0ED7  0BC2               	goto	u2395
  6720  0ED8  2ED2               	line	103
  6721                           	
  6722                           l1719:	
  6723  0ED9                     	btfss	(___fldiv@grs+3),(31)&7
  6724  0ED9  1FD1               	goto	u2401
  6725  0EDA  2EDC               	goto	u2400
  6726  0EDB  2EDD               u2401:
  6727  0EDC                     	goto	l1723
  6728  0EDC  2EDF               u2400:
  6729  0EDD                     	line	104
  6730                           	
  6731                           l1721:	
  6732  0EDD                     	bsf	(___fldiv@b)+(0/8),(0)&7
  6733  0EDD  143E               	goto	l1723
  6734  0EDE  2EDF               	line	105
  6735                           	
  6736                           l532:	
  6737  0EDF                     	line	106
  6738                           	
  6739                           l1723:	
  6740  0EDF                     	movlw	01h
  6741  0EDF  3001               	movwf	(??___fldiv+0)+0
  6742  0EE0  00C2               u2415:
  6743  0EE1                     	clrc
  6744  0EE1  1003               	rlf	(___fldiv@grs),f
  6745  0EE2  0DCE               	rlf	(___fldiv@grs+1),f
  6746  0EE3  0DCF               	rlf	(___fldiv@grs+2),f
  6747  0EE4  0DD0               	rlf	(___fldiv@grs+3),f
  6748  0EE5  0DD1               	decfsz	(??___fldiv+0)+0
  6749  0EE6  0BC2               	goto	u2415
  6750  0EE7  2EE1               	goto	l1725
  6751  0EE8  2EE9               	line	107
  6752                           	
  6753                           l531:	
  6754  0EE9                     	line	112
  6755                           	
  6756                           l1725:	
  6757  0EE9                     	movf	(___fldiv@a+3),w
  6758  0EE9  083D               	subwf	(___fldiv@rem+3),w
  6759  0EEA  024A               	skipz
  6760  0EEB  1D03               	goto	u2425
  6761  0EEC  2EF7               	movf	(___fldiv@a+2),w
  6762  0EED  083C               	subwf	(___fldiv@rem+2),w
  6763  0EEE  0249               	skipz
  6764  0EEF  1D03               	goto	u2425
  6765  0EF0  2EF7               	movf	(___fldiv@a+1),w
  6766  0EF1  083B               	subwf	(___fldiv@rem+1),w
  6767  0EF2  0248               	skipz
  6768  0EF3  1D03               	goto	u2425
  6769  0EF4  2EF7               	movf	(___fldiv@a),w
  6770  0EF5  083A               	subwf	(___fldiv@rem),w
  6771  0EF6  0247               u2425:
  6772  0EF7                     	skipc
  6773  0EF7  1C03               	goto	u2421
  6774  0EF8  2EFA               	goto	u2420
  6775  0EF9  2EFB               u2421:
  6776  0EFA                     	goto	l1731
  6777  0EFA  2F0B               u2420:
  6778  0EFB                     	line	115
  6779                           	
  6780                           l1727:	
  6781  0EFB                     	bsf	(___fldiv@grs)+(30/8),(30)&7
  6782  0EFB  1751               	line	116
  6783                           	
  6784                           l1729:	
  6785  0EFC                     	movf	(___fldiv@a),w
  6786  0EFC  083A               	subwf	(___fldiv@rem),f
  6787  0EFD  02C7               	movf	(___fldiv@a+1),w
  6788  0EFE  083B               	skipc
  6789  0EFF  1C03               	incfsz	(___fldiv@a+1),w
  6790  0F00  0F3B               	subwf	(___fldiv@rem+1),f
  6791  0F01  02C8               	movf	(___fldiv@a+2),w
  6792  0F02  083C               	skipc
  6793  0F03  1C03               	incfsz	(___fldiv@a+2),w
  6794  0F04  0F3C               	subwf	(___fldiv@rem+2),f
  6795  0F05  02C9               	movf	(___fldiv@a+3),w
  6796  0F06  083D               	skipc
  6797  0F07  1C03               	incfsz	(___fldiv@a+3),w
  6798  0F08  0F3D               	subwf	(___fldiv@rem+3),f
  6799  0F09  02CA               	goto	l1731
  6800  0F0A  2F0B               	line	117
  6801                           	
  6802                           l533:	
  6803  0F0B                     	line	118
  6804                           	
  6805                           l1731:	
  6806  0F0B                     	movlw	low(01h)
  6807  0F0B  3001               	movwf	(??___fldiv+0)+0
  6808  0F0C  00C2               	movf	(??___fldiv+0)+0,w
  6809  0F0D  0842               	addwf	(___fldiv@aexp),f
  6810  0F0E  07D3               	goto	l1733
  6811  0F0F  2F10               	line	119
  6812                           	
  6813                           l529:	
  6814  0F10                     	line	97
  6815                           	
  6816                           l1733:	
  6817  0F10                     	movlw	low(01Ah)
  6818  0F10  301A               	subwf	(___fldiv@aexp),w
  6819  0F11  0253               	skipc
  6820  0F12  1C03               	goto	u2431
  6821  0F13  2F15               	goto	u2430
  6822  0F14  2F16               u2431:
  6823  0F15                     	goto	l1715
  6824  0F15  2EC2               u2430:
  6825  0F16                     	goto	l1735
  6826  0F16  2F17               	
  6827                           l534:	
  6828  0F17                     	line	122
  6829                           	
  6830                           l1735:	
  6831  0F17                     	movf	(___fldiv@rem+3),w
  6832  0F17  084A               	iorwf	(___fldiv@rem+2),w
  6833  0F18  0449               	iorwf	(___fldiv@rem+1),w
  6834  0F19  0448               	iorwf	(___fldiv@rem),w
  6835  0F1A  0447               	skipnz
  6836  0F1B  1903               	goto	u2441
  6837  0F1C  2F1E               	goto	u2440
  6838  0F1D  2F1F               u2441:
  6839  0F1E                     	goto	l1749
  6840  0F1E  2F41               u2440:
  6841  0F1F                     	line	123
  6842                           	
  6843                           l1737:	
  6844  0F1F                     	bsf	(___fldiv@grs)+(0/8),(0)&7
  6845  0F1F  144E               	goto	l1749
  6846  0F20  2F41               	line	124
  6847                           	
  6848                           l535:	
  6849  0F21                     	line	127
  6850                           	goto	l1749
  6851  0F21  2F41               	
  6852                           l537:	
  6853  0F22                     	line	128
  6854                           	
  6855                           l1739:	
  6856  0F22                     	movlw	01h
  6857  0F22  3001               	movwf	(??___fldiv+0)+0
  6858  0F23  00C2               u2455:
  6859  0F24                     	clrc
  6860  0F24  1003               	rlf	(___fldiv@b),f
  6861  0F25  0DBE               	rlf	(___fldiv@b+1),f
  6862  0F26  0DBF               	rlf	(___fldiv@b+2),f
  6863  0F27  0DC0               	rlf	(___fldiv@b+3),f
  6864  0F28  0DC1               	decfsz	(??___fldiv+0)+0
  6865  0F29  0BC2               	goto	u2455
  6866  0F2A  2F24               	line	129
  6867                           	
  6868                           l1741:	
  6869  0F2B                     	btfss	(___fldiv@grs+3),(31)&7
  6870  0F2B  1FD1               	goto	u2461
  6871  0F2C  2F2E               	goto	u2460
  6872  0F2D  2F2F               u2461:
  6873  0F2E                     	goto	l1745
  6874  0F2E  2F31               u2460:
  6875  0F2F                     	line	130
  6876                           	
  6877                           l1743:	
  6878  0F2F                     	bsf	(___fldiv@b)+(0/8),(0)&7
  6879  0F2F  143E               	goto	l1745
  6880  0F30  2F31               	line	131
  6881                           	
  6882                           l538:	
  6883  0F31                     	line	132
  6884                           	
  6885                           l1745:	
  6886  0F31                     	movlw	01h
  6887  0F31  3001               	movwf	(??___fldiv+0)+0
  6888  0F32  00C2               u2475:
  6889  0F33                     	clrc
  6890  0F33  1003               	rlf	(___fldiv@grs),f
  6891  0F34  0DCE               	rlf	(___fldiv@grs+1),f
  6892  0F35  0DCF               	rlf	(___fldiv@grs+2),f
  6893  0F36  0DD0               	rlf	(___fldiv@grs+3),f
  6894  0F37  0DD1               	decfsz	(??___fldiv+0)+0
  6895  0F38  0BC2               	goto	u2475
  6896  0F39  2F33               	line	133
  6897                           	
  6898                           l1747:	
  6899  0F3A                     	movlw	0FFh
  6900  0F3A  30FF               	addwf	(___fldiv@new_exp),f
  6901  0F3B  07CC               	skipnc
  6902  0F3C  1803               	incf	(___fldiv@new_exp+1),f
  6903  0F3D  0ACD               	movlw	0FFh
  6904  0F3E  30FF               	addwf	(___fldiv@new_exp+1),f
  6905  0F3F  07CD               	goto	l1749
  6906  0F40  2F41               	line	134
  6907                           	
  6908                           l536:	
  6909  0F41                     	line	127
  6910                           	
  6911                           l1749:	
  6912  0F41                     	btfss	(___fldiv@b+2),(23)&7
  6913  0F41  1FC0               	goto	u2481
  6914  0F42  2F44               	goto	u2480
  6915  0F43  2F45               u2481:
  6916  0F44                     	goto	l1739
  6917  0F44  2F22               u2480:
  6918  0F45                     	goto	l1751
  6919  0F45  2F46               	
  6920                           l539:	
  6921  0F46                     	line	139
  6922                           	
  6923                           l1751:	
  6924  0F46                     	clrf	(___fldiv@aexp)
  6925  0F46  01D3               	line	140
  6926                           	
  6927                           l1753:	
  6928  0F47                     	btfss	(___fldiv@grs+3),(31)&7
  6929  0F47  1FD1               	goto	u2491
  6930  0F48  2F4A               	goto	u2490
  6931  0F49  2F4B               u2491:
  6932  0F4A                     	goto	l1761
  6933  0F4A  2F6B               u2490:
  6934  0F4B                     	line	141
  6935                           	
  6936                           l1755:	
  6937  0F4B                     	movlw	0FFh
  6938  0F4B  30FF               	andwf	(___fldiv@grs),w
  6939  0F4C  054E               	movwf	(??___fldiv+0)+0
  6940  0F4D  00C2               	movlw	0FFh
  6941  0F4E  30FF               	andwf	(___fldiv@grs+1),w
  6942  0F4F  054F               	movwf	((??___fldiv+0)+0+1)
  6943  0F50  00C3               	movlw	0FFh
  6944  0F51  30FF               	andwf	(___fldiv@grs+2),w
  6945  0F52  0550               	movwf	((??___fldiv+0)+0+2)
  6946  0F53  00C4               	movlw	07Fh
  6947  0F54  307F               	andwf	(___fldiv@grs+3),w
  6948  0F55  0551               	movwf	((??___fldiv+0)+0+3)
  6949  0F56  00C5               	movf	3+(??___fldiv+0)+0,w
  6950  0F57  0845               	iorwf	2+(??___fldiv+0)+0,w
  6951  0F58  0444               	iorwf	1+(??___fldiv+0)+0,w
  6952  0F59  0443               	iorwf	0+(??___fldiv+0)+0,w
  6953  0F5A  0442               	skipnz
  6954  0F5B  1903               	goto	u2501
  6955  0F5C  2F5E               	goto	u2500
  6956  0F5D  2F5F               u2501:
  6957  0F5E                     	goto	l541
  6958  0F5E  2F62               u2500:
  6959  0F5F                     	line	142
  6960                           	
  6961                           l1757:	
  6962  0F5F                     	clrf	(___fldiv@aexp)
  6963  0F5F  01D3               	incf	(___fldiv@aexp),f
  6964  0F60  0AD3               	line	143
  6965                           	goto	l1761
  6966  0F61  2F6B               	line	144
  6967                           	
  6968                           l541:	
  6969  0F62                     	line	145
  6970                           	btfss	(___fldiv@b),(0)&7
  6971  0F62  1C3E               	goto	u2511
  6972  0F63  2F65               	goto	u2510
  6973  0F64  2F66               u2511:
  6974  0F65                     	goto	l1761
  6975  0F65  2F6B               u2510:
  6976  0F66                     	line	146
  6977                           	
  6978                           l1759:	
  6979  0F66                     	clrf	(___fldiv@aexp)
  6980  0F66  01D3               	incf	(___fldiv@aexp),f
  6981  0F67  0AD3               	goto	l1761
  6982  0F68  2F6B               	line	147
  6983                           	
  6984                           l543:	
  6985  0F69                     	goto	l1761
  6986  0F69  2F6B               	line	148
  6987                           	
  6988                           l542:	
  6989  0F6A                     	goto	l1761
  6990  0F6A  2F6B               	line	149
  6991                           	
  6992                           l540:	
  6993  0F6B                     	line	150
  6994                           	
  6995                           l1761:	
  6996  0F6B                     	movf	((___fldiv@aexp)),w
  6997  0F6B  0853               	btfsc	status,2
  6998  0F6C  1903               	goto	u2521
  6999  0F6D  2F6F               	goto	u2520
  7000  0F6E  2F70               u2521:
  7001  0F6F                     	goto	l1771
  7002  0F6F  2FA3               u2520:
  7003  0F70                     	line	151
  7004                           	
  7005                           l1763:	
  7006  0F70                     	movlw	01h
  7007  0F70  3001               	addwf	(___fldiv@b),f
  7008  0F71  07BE               	movlw	0
  7009  0F72  3000               	skipnc
  7010  0F73  1803               movlw 1
  7011  0F74  3001               	addwf	(___fldiv@b+1),f
  7012  0F75  07BF               	movlw	0
  7013  0F76  3000               	skipnc
  7014  0F77  1803               movlw 1
  7015  0F78  3001               	addwf	(___fldiv@b+2),f
  7016  0F79  07C0               	movlw	0
  7017  0F7A  3000               	skipnc
  7018  0F7B  1803               movlw 1
  7019  0F7C  3001               	addwf	(___fldiv@b+3),f
  7020  0F7D  07C1               	line	152
  7021                           	
  7022                           l1765:	
  7023  0F7E                     	btfss	(___fldiv@b+3),(24)&7
  7024  0F7E  1C41               	goto	u2531
  7025  0F7F  2F81               	goto	u2530
  7026  0F80  2F82               u2531:
  7027  0F81                     	goto	l1771
  7028  0F81  2FA3               u2530:
  7029  0F82                     	line	153
  7030                           	
  7031                           l1767:	
  7032  0F82                     	movf	(___fldiv@b),w
  7033  0F82  083E               	movwf	(??___fldiv+0)+0
  7034  0F83  00C2               	movf	(___fldiv@b+1),w
  7035  0F84  083F               	movwf	((??___fldiv+0)+0+1)
  7036  0F85  00C3               	movf	(___fldiv@b+2),w
  7037  0F86  0840               	movwf	((??___fldiv+0)+0+2)
  7038  0F87  00C4               	movf	(___fldiv@b+3),w
  7039  0F88  0841               	movwf	((??___fldiv+0)+0+3)
  7040  0F89  00C5               	movlw	01h
  7041  0F8A  3001               	movwf	(??___fldiv+4)+0
  7042  0F8B  00C6               u2545:
  7043  0F8C                     	rlf	(??___fldiv+0)+3,w
  7044  0F8C  0D45               	rrf	(??___fldiv+0)+3,f
  7045  0F8D  0CC5               	rrf	(??___fldiv+0)+2,f
  7046  0F8E  0CC4               	rrf	(??___fldiv+0)+1,f
  7047  0F8F  0CC3               	rrf	(??___fldiv+0)+0,f
  7048  0F90  0CC2               u2540:
  7049  0F91                     	decfsz	(??___fldiv+4)+0,f
  7050  0F91  0BC6               	goto	u2545
  7051  0F92  2F8C               	movf	3+(??___fldiv+0)+0,w
  7052  0F93  0845               	movwf	(___fldiv@b+3)
  7053  0F94  00C1               	movf	2+(??___fldiv+0)+0,w
  7054  0F95  0844               	movwf	(___fldiv@b+2)
  7055  0F96  00C0               	movf	1+(??___fldiv+0)+0,w
  7056  0F97  0843               	movwf	(___fldiv@b+1)
  7057  0F98  00BF               	movf	0+(??___fldiv+0)+0,w
  7058  0F99  0842               	movwf	(___fldiv@b)
  7059  0F9A  00BE               
  7060                           	line	154
  7061                           	
  7062                           l1769:	
  7063  0F9B                     	movlw	01h
  7064  0F9B  3001               	addwf	(___fldiv@new_exp),f
  7065  0F9C  07CC               	skipnc
  7066  0F9D  1803               	incf	(___fldiv@new_exp+1),f
  7067  0F9E  0ACD               	movlw	0
  7068  0F9F  3000               	addwf	(___fldiv@new_exp+1),f
  7069  0FA0  07CD               	goto	l1771
  7070  0FA1  2FA3               	line	155
  7071                           	
  7072                           l545:	
  7073  0FA2                     	goto	l1771
  7074  0FA2  2FA3               	line	156
  7075                           	
  7076                           l544:	
  7077  0FA3                     	line	159
  7078                           	
  7079                           l1771:	
  7080  0FA3                     	movf	(___fldiv@new_exp+1),w
  7081  0FA3  084D               	xorlw	80h
  7082  0FA4  3A80               	movwf	btemp+1
  7083  0FA5  00FF               	movlw	(0)^80h
  7084  0FA6  3080               	subwf	btemp+1,w
  7085  0FA7  027F               	skipz
  7086  0FA8  1D03               	goto	u2555
  7087  0FA9  2FAC               	movlw	0FFh
  7088  0FAA  30FF               	subwf	(___fldiv@new_exp),w
  7089  0FAB  024C               u2555:
  7090  0FAC                     
  7091                           	skipc
  7092  0FAC  1C03               	goto	u2551
  7093  0FAD  2FAF               	goto	u2550
  7094  0FAE  2FB0               u2551:
  7095  0FAF                     	goto	l1775
  7096  0FAF  2FBF               u2550:
  7097  0FB0                     	line	160
  7098                           	
  7099                           l1773:	
  7100  0FB0                     	movlw	0FFh
  7101  0FB0  30FF               	bcf	status, 5	;RP0=0, select bank0
  7102  0FB1  1283               	bcf	status, 6	;RP1=0, select bank0
  7103  0FB2  1303               	movwf	(___fldiv@new_exp)
  7104  0FB3  00CC               	movlw	0
  7105  0FB4  3000               	movwf	((___fldiv@new_exp))+1
  7106  0FB5  00CD               	line	161
  7107                           	movlw	high highword(0)
  7108  0FB6  3000               	movwf	(___fldiv@b+3)
  7109  0FB7  00C1               	movlw	low highword(0)
  7110  0FB8  3000               	movwf	(___fldiv@b+2)
  7111  0FB9  00C0               	movlw	high(0)
  7112  0FBA  3000               	movwf	(___fldiv@b+1)
  7113  0FBB  00BF               	movlw	low(0)
  7114  0FBC  3000               	movwf	(___fldiv@b)
  7115  0FBD  00BE               
  7116                           	goto	l1775
  7117  0FBE  2FBF               	line	162
  7118                           	
  7119                           l546:	
  7120  0FBF                     	line	165
  7121                           	
  7122                           l1775:	
  7123  0FBF                     	bcf	status, 5	;RP0=0, select bank0
  7124  0FBF  1283               	bcf	status, 6	;RP1=0, select bank0
  7125  0FC0  1303               	movf	(___fldiv@new_exp+1),w
  7126  0FC1  084D               	xorlw	80h
  7127  0FC2  3A80               	movwf	btemp+1
  7128  0FC3  00FF               	movlw	(0)^80h
  7129  0FC4  3080               	subwf	btemp+1,w
  7130  0FC5  027F               	skipz
  7131  0FC6  1D03               	goto	u2565
  7132  0FC7  2FCA               	movlw	01h
  7133  0FC8  3001               	subwf	(___fldiv@new_exp),w
  7134  0FC9  024C               u2565:
  7135  0FCA                     
  7136                           	skipnc
  7137  0FCA  1803               	goto	u2561
  7138  0FCB  2FCD               	goto	u2560
  7139  0FCC  2FCE               u2561:
  7140  0FCD                     	goto	l547
  7141  0FCD  2FDB               u2560:
  7142  0FCE                     	line	166
  7143                           	
  7144                           l1777:	
  7145  0FCE                     	bcf	status, 5	;RP0=0, select bank0
  7146  0FCE  1283               	bcf	status, 6	;RP1=0, select bank0
  7147  0FCF  1303               	clrf	(___fldiv@new_exp)
  7148  0FD0  01CC               	clrf	(___fldiv@new_exp+1)
  7149  0FD1  01CD               	line	167
  7150                           	
  7151                           l1779:	
  7152  0FD2                     	movlw	high highword(0)
  7153  0FD2  3000               	movwf	(___fldiv@b+3)
  7154  0FD3  00C1               	movlw	low highword(0)
  7155  0FD4  3000               	movwf	(___fldiv@b+2)
  7156  0FD5  00C0               	movlw	high(0)
  7157  0FD6  3000               	movwf	(___fldiv@b+1)
  7158  0FD7  00BF               	movlw	low(0)
  7159  0FD8  3000               	movwf	(___fldiv@b)
  7160  0FD9  00BE               
  7161                           	line	169
  7162                           	
  7163                           l1781:	
  7164  0FDA                     	clrf	(___fldiv@sign)
  7165  0FDA  01CB               	line	170
  7166                           	
  7167                           l547:	
  7168  0FDB                     	line	173
  7169                           	bcf	status, 5	;RP0=0, select bank0
  7170  0FDB  1283               	bcf	status, 6	;RP1=0, select bank0
  7171  0FDC  1303               	movf	(___fldiv@new_exp),w
  7172  0FDD  084C               	movwf	(??___fldiv+0)+0
  7173  0FDE  00C2               	movf	(??___fldiv+0)+0,w
  7174  0FDF  0842               	movwf	(___fldiv@bexp)
  7175  0FE0  00D2               	line	175
  7176                           	
  7177                           l1783:	
  7178  0FE1                     	btfss	(___fldiv@bexp),(0)&7
  7179  0FE1  1C52               	goto	u2571
  7180  0FE2  2FE4               	goto	u2570
  7181  0FE3  2FE5               u2571:
  7182  0FE4                     	goto	l1787
  7183  0FE4  2FE7               u2570:
  7184  0FE5                     	line	176
  7185                           	
  7186                           l1785:	
  7187  0FE5                     	bsf	0+(___fldiv@b)+02h+(7/8),(7)&7
  7188  0FE5  17C0               	line	177
  7189                           	goto	l549
  7190  0FE6  2FEB               	line	179
  7191                           	
  7192                           l548:	
  7193  0FE7                     	line	180
  7194                           	
  7195                           l1787:	
  7196  0FE7                     	movlw	low(07Fh)
  7197  0FE7  307F               	movwf	(??___fldiv+0)+0
  7198  0FE8  00C2               	movf	(??___fldiv+0)+0,w
  7199  0FE9  0842               	andwf	0+(___fldiv@b)+02h,f
  7200  0FEA  05C0               	line	181
  7201                           	
  7202                           l549:	
  7203  0FEB                     	line	182
  7204                           	movf	(___fldiv@bexp),w
  7205  0FEB  0852               	movwf	(??___fldiv+0)+0
  7206  0FEC  00C2               	clrc
  7207  0FED  1003               	rrf	(??___fldiv+0)+0,w
  7208  0FEE  0C42               	movwf	(??___fldiv+1)+0
  7209  0FEF  00C3               	movf	(??___fldiv+1)+0,w
  7210  0FF0  0843               	movwf	0+(___fldiv@b)+03h
  7211  0FF1  00C1               	line	183
  7212                           	movf	(___fldiv@sign),w
  7213  0FF2  084B               	movwf	(??___fldiv+0)+0
  7214  0FF3  00C2               	movf	(??___fldiv+0)+0,w
  7215  0FF4  0842               	iorwf	0+(___fldiv@b)+03h,f
  7216  0FF5  04C1               	line	184
  7217                           	
  7218                           l1789:	
  7219  0FF6                     	movf	(___fldiv@b+3),w
  7220  0FF6  0841               	movwf	(?___fldiv+3)
  7221  0FF7  00BD               	movf	(___fldiv@b+2),w
  7222  0FF8  0840               	movwf	(?___fldiv+2)
  7223  0FF9  00BC               	movf	(___fldiv@b+1),w
  7224  0FFA  083F               	movwf	(?___fldiv+1)
  7225  0FFB  00BB               	movf	(___fldiv@b),w
  7226  0FFC  083E               	movwf	(?___fldiv)
  7227  0FFD  00BA               
  7228                           	goto	l527
  7229  0FFE  2FFF               	
  7230                           l1791:	
  7231  0FFF                     	line	185
  7232                           	
  7233                           l527:	
  7234  0FFF                     	return
  7235  0FFF  0008               	opt stack 0
  7236                           GLOBAL	__end_of___fldiv
  7237                           	__end_of___fldiv:
  7238  1000                     	signat	___fldiv,8316
  7239                           global	___latbits
  7240                           ___latbits	equ	2
  7241  0002                     	global	btemp
  7242                           	btemp set 07Eh
  7243  007E                     
  7244                           	DABS	1,126,2	;btemp
  7245                           	global	wtemp0
  7246                           	wtemp0 set btemp+0
  7247  007E                     	end


Data Sizes:
    Strings     0
    Constant    0
    Data        4
    BSS         8
    Persistent  0
    Stack       0

Auto Spaces:
    Space          Size  Autos    Used
    COMMON           14     14      14
    BANK0            80     80      80
    BANK1            80      3      15
    BANK3            96      0       0
    BANK2            96      0       0

Pointer List with Targets:

    None.

Critical Paths under _main in COMMON

    _watch_heat->___xxtofl
    _light->___fleq
    ___flmul->___xxtofl
    ___fldiv->___xxtofl

Critical Paths under _main in BANK0

    _main->_watch_heat
    _watch_heat->_check_heat
    _check_heat->___flge
    _change_heat->___flge
    ___flsub->___fladd
    ___fladd->___flmul
    ___flge->___fladd
    ___fldiv->___flmul

Critical Paths under _main in BANK1

    None.

Critical Paths under _main in BANK3

    None.

Critical Paths under _main in BANK2

    None.

Call Graph Tables:

 ---------------------------------------------------------------------------------
 (Depth) Function   	        Calls       Base Space   Used Autos Params    Refs
 ---------------------------------------------------------------------------------
 (0) _main                                                 5     5      0   20088
                                             78 BANK0      2     2      0
                                              0 BANK1      3     3      0
                         _watch_heat
 ---------------------------------------------------------------------------------
 (1) _watch_heat                                           8     8      0   20042
                                             70 BANK0      8     8      0
                            ___fladd
                            ___fldiv
                            ___flmul
                           ___xxtofl
                        _change_heat
                         _check_heat
                              _light
 ---------------------------------------------------------------------------------
 (2) _light                                                4     0      4    1036
                                              0 BANK0      4     0      4
                             ___fleq
 ---------------------------------------------------------------------------------
 (3) ___fleq                                              12     4      8     850
                                              0 COMMON    12     4      8
 ---------------------------------------------------------------------------------
 (2) _check_heat                                           4     0      4    4306
                                             66 BANK0      4     0      4
                            ___fladd
                             ___flge
 ---------------------------------------------------------------------------------
 (2) _change_heat                                          0     0      0    7387
                            ___fladd
                             ___flge
                            ___flsub
 ---------------------------------------------------------------------------------
 (3) ___flsub                                              8     0      8    3245
                                             50 BANK0      8     0      8
                            ___fladd
 ---------------------------------------------------------------------------------
 (3) ___fladd                                             24    16      8    3048
                                             26 BANK0     24    16      8
                            ___flmul (ARG)
 ---------------------------------------------------------------------------------
 (3) ___flge                                              16     8      8    1094
                                             50 BANK0     16     8      8
                            ___fladd (ARG)
 ---------------------------------------------------------------------------------
 (2) ___xxtofl                                            14    10      4     398
                                              0 COMMON    14    10      4
 ---------------------------------------------------------------------------------
 (2) ___flmul                                             26    18      8    2569
                                              0 BANK0     26    18      8
                          __Umul8_16
                           ___xxtofl (ARG)
 ---------------------------------------------------------------------------------
 (3) __Umul8_16                                            9     7      2     799
                                              0 COMMON     9     7      2
 ---------------------------------------------------------------------------------
 (2) ___fldiv                                             26    18      8    1273
                                             26 BANK0     26    18      8
                            ___flmul (ARG)
                           ___xxtofl (ARG)
 ---------------------------------------------------------------------------------
 Estimated maximum stack depth 3
 ---------------------------------------------------------------------------------

 Call Graph Graphs:

 _main (ROOT)
   _watch_heat
     ___fladd
       ___flmul (ARG)
         __Umul8_16
         ___xxtofl (ARG)
     ___fldiv
       ___flmul (ARG)
         __Umul8_16
         ___xxtofl (ARG)
       ___xxtofl (ARG)
     ___flmul
       __Umul8_16
       ___xxtofl (ARG)
     ___xxtofl
     _change_heat
       ___fladd
         ___flmul (ARG)
           __Umul8_16
           ___xxtofl (ARG)
       ___flge
         ___fladd (ARG)
           ___flmul (ARG)
             __Umul8_16
             ___xxtofl (ARG)
       ___flsub
         ___fladd
           ___flmul (ARG)
             __Umul8_16
             ___xxtofl (ARG)
     _check_heat
       ___fladd
         ___flmul (ARG)
           __Umul8_16
           ___xxtofl (ARG)
       ___flge
         ___fladd (ARG)
           ___flmul (ARG)
             __Umul8_16
             ___xxtofl (ARG)
     _light
       ___fleq

 Address spaces:
Name               Size   Autos  Total    Cost      Usage
BANK3               60      0       0       9        0.0%
BITBANK3            60      0       0       8        0.0%
SFR3                 0      0       0       4        0.0%
BITSFR3              0      0       0       4        0.0%
BANK2               60      0       0      11        0.0%
BITBANK2            60      0       0      10        0.0%
SFR2                 0      0       0       5        0.0%
BITSFR2              0      0       0       5        0.0%
BANK1               50      3       F       7       18.8%
BITBANK1            50      0       0       6        0.0%
SFR1                 0      0       0       2        0.0%
BITSFR1              0      0       0       2        0.0%
BANK0               50     50      50       5      100.0%
BITBANK0            50      0       0       4        0.0%
SFR0                 0      0       0       1        0.0%
BITSFR0              0      0       0       1        0.0%
COMMON               E      E       E       1      100.0%
BITCOMMON            E      0       0       0        0.0%
CODE                 0      0       0       0        0.0%
DATA                 0      0      6D      12        0.0%
ABS                  0      0      6D       3        0.0%
NULL                 0      0       0       0        0.0%
STACK                0      0       0       2        0.0%
EEDATA             100      0       0       0        0.0%


Microchip Technology PIC Macro Assembler V2.00 build -1524193055 
Symbol Table                                                                                   Fri Feb 22 17:06:07 2019

           ___fldiv@aexp 0053             ___fldiv@bexp 0052             ___fldiv@sign 004B  
            __CFG_CP$OFF 0000                       l17 0996                       l18 09BF  
                     l19 09BF                       l71 0D26                       l64 0C6B  
                     l72 0DAF                       l80 008D                       l65 0C6A  
                     l81 0092                       l66 0CDB                       l74 0DAA  
                     l90 0A71                       l82 01A8                       l67 0CDA  
                     l75 0DF6                       l68 0CDB                       l76 0DF6  
                     l85 09E5                       l86 0A08                       l87 0A2B  
                     l79 008D                       l88 0A4E                       l89 0A71  
    __Umul8_16@word_mpld 0076                      l500 03EF                      l501 03F7  
                    l350 0B52                      l510 0454                      l502 03F6  
                    l351 0B6F                      l511 0458                      l503 0433  
                    l520 0E1D                      l352 0BA5                      l512 0464  
                    l504 0433                      l521 0E29                      l353 0BDB  
                    l505 0432                      l345 0043                      l530 0EC2  
                    l522 0E3A                      l602 0960                      l354 0BF6  
                    l506 044E                      l346 005F                      l531 0EE9  
                    l523 0E50                      l603 096A                      l515 0954  
                    l347 0076                      l540 0F6B                      l532 0EDF  
                    l524 0E4D                      l604 0979                      l508 043E  
                    l541 0F62                      l533 0F0B                      l525 0E58  
                    l605 097E                      l509 044D                      l461 01BC  
                    l542 0F6A                      l534 0F17                      l526 0E7A  
                    l518 0E0A                      l470 025E                      l462 01D2  
                    l543 0F69                      l535 0F21                      l527 0FFF  
                    l519 0E20                      l471 0221                      l463 01CF  
                    l544 0FA3                      l536 0F41                      l528 0E91  
                    l560 04BA                      l480 0318                      l472 0297  
                    l464 01DB                      l545 0FA2                      l537 0F22  
                    l529 0F10                      l561 04C5                      l481 02D8  
                    l473 02C5                      l465 01E8                      l546 0FBF  
                    l538 0F31                      l570 0745                      l562 04DA  
                    l554 0478                      l490 03A2                      l482 0464  
                    l474 02BC                      l466 01F4                      l547 0FDB  
                    l539 0F46                      l571 073C                      l555 048D  
                    l491 03B9                      l483 0317                      l475 0298  
                    l467 020A                      l548 0FE7                      l580 07C4  
                    l572 0744                      l564 04D0                      l556 048B  
                    l492 03DB                      l484 0300                      l476 02A5  
                    l468 0207                      l549 0FEB                      l573 0743  
                    l565 07D9                      l557 0496                      l493 03BA  
                    l485 0303                      l477 02A8                      l469 0212  
                    l574 077D                      l566 071B                      l558 04A7  
                    l590 0ADC                      l494 03C8                      l486 0309  
                    l478 02AE                      l575 077C                      l567 06FC  
                    l559 04BC                      l591 0AC1                      l583 0A8C  
                    l487 03E1                      l495 03CF                      l479 02C5  
                    l576 0795                      l568 070B                      l592 0AE3  
                    l584 0A94                      l496 03D2                      l488 0394  
                    l577 07CC                      l569 0720                      l593 0AF0  
                    l585 0AA6                      l497 03DA                      l489 0393  
                    l578 07B0                      l594 0AE4                      l586 0B33  
                    l498 03E0                      l579 07CC                      l587 0AB9  
                    l499 03F8                      l596 0AFB                      l588 0AAB  
                    l597 0AFB                      l589 0AC0                      l598 0B07  
                    l599 0B2A                      _RC0 0038                      _RC1 0039  
                    _RD0 0040                      _RD1 0041                      _RC3 003B  
                    _RC4 003C                      _RC5 003D                      _RC6 003E  
                    _RC7 003F             __CFG_CPD$OFF 0000              __CFG_WRT$ON 0000  
           __CFG_FOSC$HS 0000             ___flmul@aexp 0032             ___flmul@bexp 0033  
           ___flmul@sign 002D             ___flmul@temp 0038             ___flmul@prod 0034  
           __CFG_LVP$OFF 0000                     l2001 099B                     l2003 09A9  
                   l2005 09B1                     l1401 0225                     l1411 0239  
                   l1403 0229                     l1501 03D2                     l1421 024D  
                   l1413 023D                     l1405 022D                     l1511 03E6  
                   l1503 03D7                     l1431 025F                     l1423 0251  
                   l1415 0241                     l1407 0231                     l1351 01A9  
                   l1343 0073                     l1601 097E                     l1521 040B  
                   l1513 03EC                     l1505 03DB                     l1441 02AC  
                   l1433 027B                     l1425 0255                     l1417 0245  
                   l1409 0235                     l1361 01C1                     l1353 01B0  
                   l1345 0075                     l1347 0BF3                     l1531 0446  
                   l1523 040F                     l1515 03F3                     l1507 03E1  
                   l1451 02CE                     l1443 02AE                     l1435 029C  
                   l1427 0259                     l1419 0249                     l1371 01DB  
                   l1363 01C6                     l1355 01B6                     l1611 0C6B  
                   l1603 0BF7                     l1701 0E7F                     l1349 0BF5  
                   l1541 045F                     l1533 044B                     l1525 042D  
                   l1517 03F8                     l1509 03E2                     l1461 02F7  
                   l1453 02D7                     l1445 02B7                     l1437 02A5  
                   l1429 025E                     l1381 01F2                     l1373 01E0  
                   l1365 01CF                     l1357 01BA                     l1613 0C71  
                   l1605 0BFB                     l1621 0D21                     l1711 0EB8  
                   l1703 0E90                     l1543 0463                     l1535 044E  
                   l1527 0438                     l1519 03FD                     l1471 0312  
                   l1463 0300                     l1455 02D8                     l1439 02A8  
                   l1447 02BC                     l1391 0208                     l1383 01F4  
                   l1375 01E6                     l1367 01D0                     l1359 01BC  
                   l1615 0C9A                     l1607 0C01                     l1623 0D26  
                   l1551 0071                     l1631 09C2                     l1721 0EDD  
                   l1713 0EC0                     l1705 0E91                     l1801 0478  
                   l1561 0B66                     l1537 0452                     l1529 043E  
                   l1481 0384                     l1465 0303                     l1457 02EF  
                   l1449 02C9                     l1473 0318                     l1385 01F9  
                   l1393 020A                     l1377 01E8                     l1369 01D2  
                   l1609 0C2A                     l1625 0D68                     l1617 0CDC  
                   l1553 0073                     l1545 0027                     l1641 0A23  
                   l1633 09DD                     l1731 0F0B                     l1723 0EDF  
                   l1715 0EC2                     l1707 0EA8                     l1651 0DF7  
                   l1811 0496                     l1803 047D                     l1571 0BDB  
                   l1563 0B6F                     l1539 0454                     l1491 03BA  
                   l1475 032E                     l1483 0394                     l1467 0307  
                   l1459 02F3                     l1395 0218                     l1387 01FE  
                   l1379 01EE                     l1627 0DAF                     l1619 0CDF  
                   l1555 0076                     l1547 003B                     l1643 0A2B  
                   l1635 09E5                     l1741 0F2B                     l1717 0EC7  
                   l1725 0EE9                     l1733 0F10                     l1709 0EB0  
                   l1661 0E0F                     l1653 0DFE                     l1901 0745  
                   l1821 04AC                     l1813 049B                     l1805 0482  
                   l1581 0BF6                     l1573 0BDD                     l1565 0B73  
                   l1557 0B34                     l1493 03C3                     l1485 03AA  
                   l1477 037D                     l1469 0309                     l1397 021C  
                   l1389 0207                     l1629 0DF1                     l1549 0057  
                   l1645 0A46                     l1637 0A00                     l1751 0F46  
                   l1743 0F2F                     l1735 0F17                     l1727 0EFB  
                   l1719 0ED9                     l1671 0E29                     l1663 0E14  
                   l1655 0E04                     l1591 0958                     l1903 074A  
                   l1911 077D                     l1831 04CA                     l1823 04B1  
                   l1815 04A1                     l1807 048B                     l1575 0BDF  
                   l1567 0BA5                     l1559 0B4A                     l1495 03C7  
                   l1487 03AF                     l1479 037F                     l1399 0221  
                   l1583 0930                     l1647 0A4E                     l1639 0A08  
                   l1761 0F6B                     l1753 0F47                     l1745 0F31  
                   l1737 0F1F                     l1729 0EFC                     l1681 0E3F  
                   l1673 0E2E                     l1665 0E1D                     l1657 0E08  
                   l1593 0960                     l1921 07B0                     l1913 078A  
                   l1905 0758                     l1841 04F7                     l1833 04D0  
                   l1825 04BA                     l1817 04A5                     l1809 048D  
                   l1577 0BF1                     l1569 0BA9                     l1497 03CC  
                   l1489 03B8                     l1585 0934                     l1649 0A69  
                   l1763 0F70                     l1771 0FA3                     l1755 0F4B  
                   l1747 0F3A                     l1739 0F22                     l1691 0E60  
                   l1683 0E44                     l1675 0E34                     l1667 0E1E  
                   l1659 0E0A                     l1595 0964                     l1931 07D9  
                   l1923 07BE                     l1915 0795                     l1907 075C  
                   l1851 0594                     l1843 0514                     l1835 04D9  
                   l1827 04BC                     l1819 04A7                     l1579 0BF3  
                   l1499 03CF                     l1587 0954                     l1781 0FDA  
                   l1773 0FB0                     l1765 0F7E                     l1757 0F5F  
                   l1749 0F41                     l1693 0E6C                     l1685 0E4D  
                   l1677 0E38                     l1669 0E20                     l1597 0973  
                   l1589 0956                     l1925 07C2                     l1917 07A4  
                   l1909 0775                     l1861 05F7                     l1853 059D  
                   l1845 0530                     l1837 04DA                     l1829 04C5  
                   l1941 0A9C                     l1933 0A73                     l1791 0FFF  
                   l1783 0FE1                     l1775 0FBF                     l1767 0F82  
                   l1759 0F66                     l1695 0E70                     l1687 0E4E  
                   l1679 0E3A                     l1599 0979                     l1927 07C4  
                   l1919 07AE                     l1871 0697                     l1863 0610  
                   l1855 05AD                     l1847 055C                     l1839 04EA  
                   l1951 0AC1                     l1943 0AA5                     l1935 0A78  
                   l1785 0FE5                     l1777 0FCE                     l1769 0F9B  
                   l1697 0E79                     l1689 0E50                     l1929 07D0  
                   l1881 0705                     l1873 06BD                     l1865 062D  
                   l1857 05CA                     l1849 0578                     l1793 0465  
                   l1961 0AF4                     l1953 0AC5                     l1945 0AA6  
                   l1937 0A7C                     l1787 0FE7                     l1779 0FD2  
                   l1699 0E7A                     l1891 0720                     l1883 0709  
                   l1875 06E5                     l1867 065A                     l1859 05DA  
                   l1795 046C                     l1971 0B28                     l1963 0AFF  
                   l1955 0AD3                     l1947 0AAB                     l1939 0A8C  
                   l1789 0FF6                     l1893 0721                     l1885 070B  
                   l1877 06EE                     l1869 066A                     l1797 0472  
                   l1973 0B2A                     l1965 0B09                     l1957 0AE4  
                   l1949 0AB9                     l1981 0092                     l1895 0725  
                   l1887 0714                     l1879 06FC                     l1799 0476  
                   l1975 0B33                     l1967 0B1F                     l1959 0AF0  
                   l1983 00A1                     l1991 097F                     l1897 0739  
                   l1889 071B                     l1969 0B24                     l1985 00C1  
                   l1977 0077                     l1993 0983                     l1899 0740  
                   l1987 0115                     l1979 008B                     l1995 0987  
                   l1989 016B                     l1997 0995                     l1999 0996  
                   u2000 044B                     u2001 044A                     u2010 0452  
                   u2011 0451                     u2100 0BA9                     u2020 0463  
                   u2101 0BA8                     u2021 0462                     u2110 0BC7  
                   u2030 003B                     u2111 0BC8                     u2031 003A  
                   u2120 0BF1                     u2112 0BCD                     u2200 0D21  
                   u2040 0057                     u2121 0BF0                     u2113 0BCE  
                   u2201 0D20                     u2041 0056                     u2130 0964  
                   u3010 0AE2                     u2210 0D68                     u2050 0071  
                   u2131 0963                     u3011 0AE1                     u2211 0D67  
                   u2051 0070                     u2300 0E0F                     u2060 0B4A  
                   u2220 0DAA                     u2301 0E0E                     u3005 0AD4  
                   u2125 0BED                     u2061 0B49                     u2221 0DA9  
                   u3101 00B3                     u2310 0E14                     u2150 0978  
                   u3030 0AF4                     u2070 0B66                     u2230 0DF1  
                   u3102 00BA                     u3110 0994                     u2311 0E13  
                   u2151 0977                     u3031 0AF3                     u2071 0B65  
                   u2231 0DF0                     u2055 006D                     u3103 00C1  
                   u3111 0993                     u2400 0EDD                     u2320 0E38  
                   u3040 0AFA                     u2080 0B73                     u1600 01E6  
                   u2160 0C01                     u2240 09DD                     u3120 09BE  
                   u2401 0EDC                     u2321 0E37                     u2145 096B  
                   u3041 0AF9                     u3025 0AE8                     u2081 0B72  
                   u1601 01E5                     u2161 0C00                     u2241 09DC  
                   u3121 09BD                     u2330 0E3F                     u3050 0AFF  
                   u2090 0B91                     u1610 01F2                     u2170 0C2A  
                   u2250 0A00                     u2331 0E3E                     u3051 0AFE  
                   u2091 0B92                     u1611 01F1                     u2171 0C29  
                   u2251 09FF                     u3115 0990                     u2500 0F5F  
                   u2420 0EFB                     u2340 0E44                     u3060 0B14  
                   u2092 0B97                     u1700 02AC                     u1620 01F9  
                   u2180 0C71                     u2260 0A23                     u2501 0F5E  
                   u2421 0EFA                     u2341 0E43                     u2093 0B98  
                   u1701 02AB                     u1621 01F8                     u2181 0C70  
                   u2261 0A22                     u3125 09BA                     u2510 0F66  
                   u2430 0F16                     u2350 0E60                     u3070 0B24  
                   u1630 01FE                     u2190 0C9A                     u2270 0A46  
                   u2511 0F65                     u2431 0F15                     u2415 0EE1  
                   u2351 0E5F                     u3071 0B23                     u1631 01FD  
                   u2191 0C99                     u2271 0A45                     u2520 0F70  
                   u2440 0F1F                     u2360 0E7F                     u2600 0482  
                   u3080 0B28                     u1800 032E                     u1720 02C4  
                   u1640 0218                     u2280 0A69                     u2521 0F6F  
                   u2441 0F1E                     u2425 0EF7                     u2361 0E7E  
                   u2601 0481                     u3081 0B27                     u3065 0B0F  
                   u1801 032D                     u1721 02C3                     u1641 0217  
                   u2281 0A68                     u3137 09A3                     u2530 0F82  
                   u2370 0EC7                     u2290 0E08                     u2610 04A5  
                   u1810 0354                     u1730 02C9                     u1650 021C  
                   u1570 01BA                     u3090 0091                     u2531 0F81  
                   u2371 0EC6                     u2291 0E07                     u2611 04A4  
                   u1811 0355                     u1803 032A                     u1731 02C8  
                   u1715 02B0                     u1651 021B                     u1571 01B9  
                   u3091 0090                     u2540 0F91                     u2460 0F2F  
                   u2620 04AC                     u1900 03DF                     u1820 0366  
                   u1812 035A                     u1740 02CE                     u1660 027B  
                   u1580 01C1                     u2461 0F2E                     u2621 04AB  
                   u1901 03DE                     u1821 0367                     u1813 035B  
                   u1741 02CD                     u1661 027A                     u1581 01C0  
                   u2550 0FB0                     u2630 04B1                     u1910 03E6  
                   u1830 0384                     u1822 036C                     u1670 0286  
                   u1590 01C6                     u2551 0FAF                     u2455 0F24  
                   u2711 05BC                     u2631 04B0                     u1911 03E5  
                   u1831 0383                     u1823 036D                     u1751 02E1  
                   u1671 0284                     u1591 01C5                     u2560 0FCE  
                   u2480 0F45                     u2712 05C3                     u2640 04CA  
                   u1920 03EC                     u1840 03AA                     u1760 02F3  
                   u1752 02E8                     u1680 0287                     u2561 0FCD  
                   u2545 0F8C                     u2481 0F44                     u2385 0EC9  
                   u2801 06D7                     u2721 05E9                     u2713 05CA  
                   u2705 0596                     u2641 04C9                     u1921 03EB  
                   u1841 03A9                     u1761 02F2                     u1753 02EF  
                   u1665 0277                     u2570 0FE5                     u2490 0F4B  
                   u2802 06DE                     u2722 05F0                     u2650 04CF  
                   u1930 03F3                     u1850 03AF                     u1770 02F7  
                   u1690 029C                     u2571 0FE4                     u2555 0FAC  
                   u2491 0F4A                     u2475 0F33                     u2395 0ED2  
                   u2803 06E5                     u2723 05F7                     u2651 04CE  
                   u1931 03F2                     u1851 03AE                     u1771 02F6  
                   u1691 029B                     u2900 075C                     u2580 0476  
                   u1940 03FD                     u1780 0307                     u2565 0FCA  
                   u2901 075B                     u2741 061F                     u2661 0522  
                   u2581 0475                     u1941 03FC                     u1781 0306  
                   u2910 076B                     u2830 0709                     u2742 0626  
                   u2662 0529                     u2590 047D                     u1950 040F  
                   u1870 03C7                     u2831 0708                     u2815 06E7  
                   u2751 064C                     u2743 062D                     u2735 05F9  
                   u2671 053E                     u2663 0530                     u2591 047C  
                   u1951 040E                     u1871 03C6                     u2920 078A  
                   u2752 0653                     u2672 0545                     u1960 041E  
                   u1880 03CC                     u2921 0789                     u2825 06FE  
                   u2761 0679                     u2753 065A                     u2681 056A  
                   u2673 054C                     u1881 03CB                     u1865 03BC  
                   u2930 07A4                     u2850 071F                     u2770 06A3  
                   u2762 0680                     u2682 0571                     u1970 042D  
                   u1890 03D7                     u2931 07A3                     u2915 0766  
                   u2851 071E                     u2763 0687                     u2691 0586  
                   u2683 0578                     u1971 042C                     u1891 03D6  
                   u1795 030B                     u2940 07C2                     u2860 0725  
                   u2692 058D                     u1980 0438                     u2941 07C1  
                   u2925 0786                     u2861 0724                     u2845 070D  
                   u2781 06AF                     u2693 0594                     u1981 0437  
                   u1965 0419                     u2870 0739                     u2790 06CB  
                   u2782 06B6                     u2950 0A78                     u1990 043D  
                   u2935 07A0                     u2871 0738                     u2783 06BD  
                   u2775 069E                     u2951 0A77                     u1991 043C  
                   u2880 0740                     u2960 0A7C                     u2881 073F  
                   u2961 0A7B                     u2890 074A                     u2970 0A9C  
                   u2891 0749                     u2795 06C6                     u2971 0A9B  
                   u2990 0ABF                     u2991 0ABE                     u2985 0AB0  
                   _main 097F                     _temp 00A0                     btemp 007E  
          __CFG_BOREN$ON 0000                     start 0000          ___fldiv@new_exp 004C  
        __end_of___fladd 0465                    ?_main 0070          __end_of___fldiv 1000  
          __CFG_WDTE$OFF 0000          __end_of___flmul 07DA          __end_of___flsub 0955  
                  _TRISA 0085                    _TRISC 0087                    _TRISD 0088  
   __size_of_change_heat 00E5                    _light 09C2                    main@i 006E  
                  status 0003                    wtemp0 007E          __initialization 07DA  
           __end_of_main 09C2                   ??_main 00AC                   _ADCON0 001F  
                 _ADCON1 009F                   ?_light 0020                   _ADRESH 001E  
                 _ADRESL 009E         __end_of___xxtofl 0B34           __CFG_PWRTE$OFF 0000  
                 ___flge 0B34                   ___fleq 0027                ??___fladd 0042  
              ??___fldiv 0042                ??___flmul 0028                ??___flsub 007E  
     __size_of__Umul8_16 002A               ___flge@ff1 0052               ___flge@ff2 0056  
           ___xxtofl@arg 007A             ___xxtofl@exp 0079             ___xxtofl@val 0070  
             ___fleq@ff1 0070               ___fleq@ff2 0074  __end_of__initialization 07FC  
         __pcstackCOMMON 0070             __pidataBANK1 0023            __end_of_light 0A72  
                ??_light 007C               __pbssBANK1 00A0               _check_heat 0CDC  
      __end_of__Umul8_16 097F               __pmaintext 097F                  ?___flge 0052  
                ?___fleq 0070                ?___xxtofl 0070          __size_of___flge 00C3  
        __size_of___fleq 0050                  ___fladd 01A9                  ___fldiv 0DF7  
                ___flmul 0465                  ___flsub 0930                  __ptext1 0077  
                __ptext2 09C2                  __ptext3 0027                  __ptext4 0CDC  
                __ptext5 0BF7                  __ptext6 0930                  __ptext7 01A9  
                __ptext8 0B34                  __ptext9 0A72            ??_change_heat 007E  
             ??___xxtofl 0074                  _tension 00A4     end_of_initialization 07FC  
            ?_check_heat 0062               _temp_cible 00A8               _watch_heat 0077  
            ___fladd@grs 0051            ___xxtofl@sign 0078              ___fldiv@grs 004E  
            ___fldiv@rem 0047      __end_of_change_heat 0CDC              ___flmul@grs 002E  
         __end_of___flge 0BF7           __end_of___fleq 0077      __size_of_check_heat 011B  
    start_initialization 07DA           check_heat@temp 0062                 ??___flge 005A  
               ??___fleq 0078                __Umul8_16 0955              __pdataBANK1 00A8  
            ?_watch_heat 0070                ___fladd@a 003E                ___fladd@b 003A  
              ___fldiv@a 003A                ___fldiv@b 003E                ___flmul@a 0024  
              ___flmul@b 0020                ___flsub@a 0052                ___flsub@b 0056  
            _change_heat 0BF7                ___latbits 0002            __pcstackBANK0 0020  
          __pcstackBANK1 00AC        __size_of___xxtofl 00C2                 ?___fladd 003A  
               ?___fldiv 003A                 ?___flmul 0020                 ?___flsub 0052  
             ?__Umul8_16 0070           __size_of_light 00B0             ??_check_heat 007E  
    __size_of_watch_heat 0132               _ADCON0bits 001F       __end_of_check_heat 0DF7  
              light@temp 0020              ??__Umul8_16 0072         __size_of___fladd 02BC  
       __size_of___fldiv 0209         __size_of___flmul 0375         __size_of___flsub 0025  
               ___xxtofl 0A72                 __ptext10 0465                 __ptext11 0955  
               __ptext12 0DF7            __size_of_main 0043      watch_heat@ValeurADC 006A  
           ??_watch_heat 0066             ?_change_heat 0070       __end_of_watch_heat 01A9  
 __Umul8_16@multiplicand 0070            ___fladd@signs 004E             ___fladd@aexp 004F  
           ___fladd@bexp 0050     __Umul8_16@multiplier 0078        __Umul8_16@product 0074  
